
Allocating common symbols
Common symbol       size              file

_func_smObjObjShow  0x4               partialImage.o
taskSwitchTable     0x44              partialImage.o
inetsw              0x340             partialImage.o
wdbTaskDspRegsSet   0x4               partialImage.o
msgQDistShowRtn     0x4               partialImage.o
_func_evtLogT1_noTS
                    0x4               partialImage.o
sysCplusEnable      0x4               partialImage.o
__func_type_info type_info node
                    0xc               partialImage.o
CDataPackage type_info node
                    0xc               partialImage.o
_func_armIrqHandler
                    0x4               partialImage.o
mCastHashInfo       0x8               partialImage.o
ifnet               0x4               partialImage.o
_func_spyStop       0x4               partialImage.o
workQWriteIx        0x1               partialImage.o
bad_alloc type_info node
                    0xc               partialImage.o
i2c_ack_stat        0x1               partialImage.o
_func_excInfoShow   0x4               partialImage.o
ip_id               0x2               partialImage.o
_func_evtLogReserveTaskName
                    0x4               partialImage.o
dbgLockUnbreakable  0x4               partialImage.o
drvTable            0x4               partialImage.o
ip_protox           0x100             partialImage.o
DCACHE_CTRL         0x80              partialImage.o
zeroin_addr         0x4               partialImage.o
__attr_type_info type_info node
                    0xc               partialImage.o
_func_trgCheck      0x4               partialImage.o
wdbTaskAvRegsGet    0x4               partialImage.o
pWvNetEventMap      0x4               partialImage.o
workQReadIx         0x1               partialImage.o
fppDisplayHookRtn   0x4               partialImage.o
cbioClass           0x34              partialImage.o
ioDefPath           0x100             partialImage.o
wdbTaskRestartHook  0x4               partialImage.o
_func_taskCreateHookAdd
                    0x4               partialImage.o
_func_dspRegsListHook
                    0x4               partialImage.o
_func_tmrConnect    0x4               partialImage.o
max_protohdr        0x4               partialImage.o
_func_evtLogTSched  0x4               partialImage.o
tcpstat             0xd0              partialImage.o
vxIntStackBase      0x4               partialImage.o
_func_dspTaskRegsShow
                    0x4               partialImage.o
workQIsEmpty        0x4               partialImage.o
arp_allocated       0x4               partialImage.o
trgEvtClass         0x4               partialImage.o
_func_selPtyDelete  0x4               partialImage.o
mmuLibFuncs         0x28              partialImage.o
redirOutFd          0x4               partialImage.o
taskSwapTable       0x44              partialImage.o
_func_evtLogO       0x4               partialImage.o
pEndPktDev          0x4               partialImage.o
CSoftUpGrade type_info node
                    0x8               partialImage.o
_func_selWakeupListInit
                    0x4               partialImage.o
CRelativeTimer type_info node
                    0xc               partialImage.o
rttrash             0x4               partialImage.o
_wdbTaskCont        0x4               partialImage.o
CTimer type_info node
                    0x8               partialImage.o
semMGiveKernWork    0x4               partialImage.o
ftpsCurrentClients  0x4               partialImage.o
CfgMgr type_info node
                    0x8               partialImage.o
trgCnt              0x4               partialImage.o
errno               0x4               partialImage.o
CProcAlarm type_info node
                    0x8               partialImage.o
mmuStateTransArraySize
                    0x4               partialImage.o
_func_ioTaskStdSet  0x4               partialImage.o
_func_excIntHook    0x4               partialImage.o
_func_selPtyAdd     0x4               partialImage.o
kernelState         0x4               partialImage.o
_func_evtLogM1      0x4               partialImage.o
sysAdaEnable        0x4               partialImage.o
wdbBpSysEnterHook   0x4               partialImage.o
wdbRtIf             0x58              partialImage.o
yyerrflag           0x4               partialImage.o
s_asOvlyInfo        0x170             partialImage.o
_func_sigExcKill    0x4               partialImage.o
_func_wvNetPortFilterTest
                    0x4               partialImage.o
CKeepAlivePackage type_info node
                    0xc               partialImage.o
s_abyImageFileData  0x697c00          partialImage.o
bad_typeid type_info node
                    0xc               partialImage.o
_func_bdall         0x4               partialImage.o
hostList            0xc               partialImage.o
tickQHead           0x10              partialImage.o
__wdbEvtptDeleteAll
                    0x4               partialImage.o
_func_symNameGet    0x4               partialImage.o
tcbinfo             0x10              partialImage.o
_func_logMsg        0x4               partialImage.o
tcpOutRsts          0x4               partialImage.o
_func_tmrFreq       0x4               partialImage.o
excMsgQId           0x4               partialImage.o
_clockRealtime      0x10              partialImage.o
__sn_t24__default_alloc_template2b1i0$_S_node_allocator_lock
                    0x4               partialImage.o
_func_tmrEnable     0x4               partialImage.o
CStandbySystemMessage type_info node
                    0xc               partialImage.o
CAlarmTcpSocket type_info node
                    0xc               partialImage.o
_igmpQuerierTimeUpdateHook
                    0x4               partialImage.o
CProtocolInterface type_info node
                    0x8               partialImage.o
bpFreeList          0x8               partialImage.o
msgQDistNumMsgsRtn  0x4               partialImage.o
sysFlags            0x4               partialImage.o
_func_excPanicHook  0x4               partialImage.o
_func_spy           0x4               partialImage.o
bad_cast type_info node
                    0xc               partialImage.o
_func_remCurIdGet   0x4               partialImage.o
_func_ipsecFilterHook
                    0x4               partialImage.o
_igmpLeaveAlertHook
                    0x4               partialImage.o
vxSvcIntStackEnd    0x4               partialImage.o
spyKernelIncTicks   0x4               partialImage.o
smObjTcbFreeFailRtn
                    0x4               partialImage.o
CLinkNode type_info node
                    0x8               partialImage.o
CPackage type_info node
                    0x8               partialImage.o
taskBpHook          0x4               partialImage.o
sigEvtRtn           0x4               partialImage.o
_func_ipsecOutput   0x4               partialImage.o
_m2IfTableUpdate    0x4               partialImage.o
_func_selTyDelete   0x4               partialImage.o
_wdbTaskStep        0x4               partialImage.o
_func_pthread_setcanceltype
                    0x4               partialImage.o
_func_evtLogT0      0x4               partialImage.o
in_ifaddr           0x4               partialImage.o
max_hdr             0x4               partialImage.o
smMemPartShowRtn    0x4               partialImage.o
_func_sseTaskRegsShow
                    0x4               partialImage.o
dbgPrintFpp         0x4               partialImage.o
_func_tmrStampLock  0x4               partialImage.o
taskDeleteTable     0x44              partialImage.o
rt_tables           0x6c              partialImage.o
ipstat              0x60              partialImage.o
CModule type_info node
                    0x8               partialImage.o
_func_valloc        0x4               partialImage.o
ledId               0x4               partialImage.o
_igmpMessageHook    0x4               partialImage.o
s_abyBackgroundBuf  0x697800          partialImage.o
dbgUnbreakableOld   0x4               partialImage.o
max_linkhdr         0x4               partialImage.o
_func_evtLogM3      0x4               partialImage.o
loif                0x94              partialImage.o
_wdbTaskBpTrap      0x4               partialImage.o
sCurI2cPort         0x2               partialImage.o
fppCreateHookRtn    0x4               partialImage.o
CSoftTcpSocket type_info node
                    0xc               partialImage.o
_func_evtLogPoint   0x4               partialImage.o
msgQSmShowRtn       0x4               partialImage.o
vxSvcIntStackBase   0x4               partialImage.o
_func_symValueGet   0x4               partialImage.o
spyIncTicks         0x4               partialImage.o
_func_spyClkStart   0x4               partialImage.o
_func_excBaseHook   0x4               partialImage.o
_func_tmrPeriod     0x4               partialImage.o
dbgSafeUnbreakable  0x4               partialImage.o
__ptmf_type_info type_info node
                    0xc               partialImage.o
yynerrs             0x4               partialImage.o
pWdbRtIf            0x4               partialImage.o
wdbTaskId           0x4               partialImage.o
__array_type_info type_info node
                    0xc               partialImage.o
_func_tmrStamp      0x4               partialImage.o
spyIdleTicks        0x4               partialImage.o
msgQSmInfoGetRtn    0x4               partialImage.o
sysBootParams       0x2b4             partialImage.o
_func_ftpLs         0x4               partialImage.o
sysBootFile         0xa0              partialImage.o
tcp_maxidle         0x4               partialImage.o
mmuPageBlockSize    0x4               partialImage.o
wvInstIsOn          0x4               partialImage.o
yyval               0x10              partialImage.o
semClass            0x34              partialImage.o
semInstClass        0x34              partialImage.o
smObjTaskDeleteFailRtn
                    0x4               partialImage.o
type_info type_info node
                    0x8               partialImage.o
_func_evtLogM2      0x4               partialImage.o
pJobPool            0x400             partialImage.o
tcp_alpha           0x4               partialImage.o
udpstat             0x28              partialImage.o
mask_rnhead         0x4               partialImage.o
_func_evtLogT0_noInt
                    0x4               partialImage.o
_func_spyReport     0x4               partialImage.o
msgQDistInfoGetRtn  0x4               partialImage.o
_func_selTyAdd      0x4               partialImage.o
_igmpJoinAlertHook  0x4               partialImage.o
_func_fclose        0x4               partialImage.o
sysSymTbl           0x4               partialImage.o
wdbBpSysExitHook    0x4               partialImage.o
yytmp               0x4               partialImage.o
vxAbsTicks          0x8               partialImage.o
in_interfaces       0x4               partialImage.o
ppGlobalEnviron     0x4               partialImage.o
msgQSmReceiveRtn    0x4               partialImage.o
smObjTcbFreeRtn     0x4               partialImage.o
_m2SetIfLastChange  0x4               partialImage.o
C485Client type_info node
                    0xc               partialImage.o
smMemPartOptionsSetRtn
                    0x4               partialImage.o
_func_spyClkStop    0x4               partialImage.o
redirInFd           0x4               partialImage.o
wildcard            0x10              partialImage.o
CTcpSocket type_info node
                    0x8               partialImage.o
CCfgTcpSocket type_info node
                    0xc               partialImage.o
CRebootSystemMessage type_info node
                    0xc               partialImage.o
_wdbTaskBpAdd       0x4               partialImage.o
dbgPrintSimd        0x4               partialImage.o
yy_yys              0x258             partialImage.o
msgQDistSendRtn     0x4               partialImage.o
_func_tmrDisable    0x4               partialImage.o
shellTaskId         0x4               partialImage.o
rn_mkfreelist       0x4               partialImage.o
__pointer_type_info type_info node
                    0xc               partialImage.o
CSocketNode type_info node
                    0x8               partialImage.o
_func_evtLogString  0x4               partialImage.o
COnLinePackage type_info node
                    0xc               partialImage.o
tcp_beta            0x4               partialImage.o
splSemId            0x4               partialImage.o
udb                 0x4               partialImage.o
CPeriodicTimer type_info node
                    0xc               partialImage.o
CDebugTcpSocket type_info node
                    0xc               partialImage.o
arp_inuse           0x4               partialImage.o
mmuStateTransArray  0x4               partialImage.o
wvEvtClass          0x4               partialImage.o
splTid              0x4               partialImage.o
taskIdCurrent       0x4               partialImage.o
ipintrq             0x14              partialImage.o
rootTaskId          0x4               partialImage.o
_func_symFindSymbol
                    0x4               partialImage.o
bad_exception type_info node
                    0xc               partialImage.o
_func_printErr      0x4               partialImage.o
pFppTaskIdPrevious  0x4               partialImage.o
exception type_info node
                    0x8               partialImage.o
roundRobinSlice     0x4               partialImage.o
_func_ipsecInput    0x4               partialImage.o
COfflineSystemMessage type_info node
                    0xc               partialImage.o
_func_evtLogT1      0x4               partialImage.o
tcp_now             0x4               partialImage.o
localToGlobalOffset
                    0x4               partialImage.o
_func_taskDeleteHookAdd
                    0x4               partialImage.o
netTaskId           0x4               partialImage.o
__user_type_info type_info node
                    0xc               partialImage.o
wdbTaskFpRegsSet    0x4               partialImage.o
flPollSemId         0x4               partialImage.o
_func_netLsByName   0x4               partialImage.o
vxTicks             0x4               partialImage.o
dbgPrintDsp         0x4               partialImage.o
yystate             0x4               partialImage.o
_func_fppTaskRegsShow
                    0x4               partialImage.o
_func_symFindByValue
                    0x4               partialImage.o
excExcepHook        0x4               partialImage.o
yydebug             0x4               partialImage.o
wdbTaskFpRegsGet    0x4               partialImage.o
yyps                0x4               partialImage.o
smObjPoolMinusOne   0x4               partialImage.o
__ptmd_type_info type_info node
                    0xc               partialImage.o
CSystemMessage type_info node
                    0x8               partialImage.o
ipforward_rt        0x14              partialImage.o
_func_selWakeupListTerm
                    0x4               partialImage.o
msgQSmNumMsgsRtn    0x4               partialImage.o
eventEvtRtn         0x4               partialImage.o
smMemPartFindMaxRtn
                    0x4               partialImage.o
vxIrqIntStackBase   0x4               partialImage.o
vxIntStackEnd       0x4               partialImage.o
_func_memalign      0x4               partialImage.o
CProtocol type_info node
                    0x8               partialImage.o
yypv                0x4               partialImage.o
ipDrvCtrl           0xc4              partialImage.o
rootMemNBytes       0x4               partialImage.o
_func_evtLogM0      0x4               partialImage.o
semSmShowRtn        0x4               partialImage.o
_func_sigprocmask   0x4               partialImage.o
cplusDemanglerStyle
                    0x4               partialImage.o
_func_symTypeGet    0x4               partialImage.o
_pSigQueueFreeHead  0x4               partialImage.o
igmpstat            0x24              partialImage.o
tcp_saveti          0x28              partialImage.o
tcpcb               0x4               partialImage.o
arp_intimer         0x4               partialImage.o
_func_remCurIdSet   0x4               partialImage.o
loginVerifyRtn      0x4               partialImage.o
rtstat              0xa               partialImage.o
taskCreateTable     0x44              partialImage.o
__si_type_info type_info node
                    0xc               partialImage.o
readyQHead          0x10              partialImage.o
panicSuspend        0x4               partialImage.o
wdbExternSystemRegs
                    0x44              partialImage.o
bpList              0x8               partialImage.o
vxIrqIntStackEnd    0x4               partialImage.o
sysStartType        0x4               partialImage.o
__wdbEventListIsEmpty
                    0x4               partialImage.o
sysBootHost         0xa0              partialImage.o
pInPkt              0x4               partialImage.o
_func_dspMregsHook  0x4               partialImage.o
maxFiles            0x4               partialImage.o
CRC                 0x84              partialImage.o
_func_excJobAdd     0x4               partialImage.o
_ipCfgFlags         0x4               partialImage.o
yylval              0x10              partialImage.o
_func_spyTask       0x4               partialImage.o
CEthnClient type_info node
                    0xc               partialImage.o
smMemPartReallocRtn
                    0x4               partialImage.o
tcp_iss             0x4               partialImage.o
pMibRtn             0x4               partialImage.o
spyInterruptTicks   0x4               partialImage.o
_func_wvNetAddressFilterTest
                    0x4               partialImage.o
spyKernelTicks      0x4               partialImage.o
taskSwapReference   0x44              partialImage.o
msgQSmSendRtn       0x4               partialImage.o
_func_selWakeupAll  0x4               partialImage.o
maxDrivers          0x4               partialImage.o
CStartupSystemMessage type_info node
                    0xc               partialImage.o
max_keylen          0x4               partialImage.o
yy_yyv              0x960             partialImage.o
excTaskId           0x4               partialImage.o
ipq                 0x1c              partialImage.o
wvObjIsEnabled      0x4               partialImage.o
CCtrlPackage type_info node
                    0xc               partialImage.o
pRootMemStart       0x4               partialImage.o
spyInterruptIncTicks
                    0x4               partialImage.o
spyIdleIncTicks     0x4               partialImage.o
wdbCommMtu          0x4               partialImage.o
fdTable             0x4               partialImage.o
statSymTbl          0x4               partialImage.o
roundRobinOn        0x4               partialImage.o
readyQBMap          0x824             partialImage.o
domains             0x4               partialImage.o
spyTotalTicks       0x4               partialImage.o
__class_type_info type_info node
                    0xc               partialImage.o
sysProcNum          0x4               partialImage.o
_func_sigTimeoutRecalc
                    0x4               partialImage.o
wdbTaskDspRegsGet   0x4               partialImage.o
icmpstat            0xb8              partialImage.o
kernelIsIdle        0x4               partialImage.o
vxEventPendQ        0x10              partialImage.o
iosDvList           0x8               partialImage.o
dcacheCtrl          0x800             partialImage.o
__builtin_type_info type_info node
                    0xc               partialImage.o
_func_symFindByValueAndType
                    0x4               partialImage.o
semSmInfoRtn        0x4               partialImage.o
yychar              0x4               partialImage.o
udbinfo             0x10              partialImage.o
msgQDistReceiveRtn  0x4               partialImage.o
wdbTaskAvRegsSet    0x4               partialImage.o
_func_evtLogOIntLock
                    0x4               partialImage.o
_func_taskRegsShowRtn
                    0x4               partialImage.o

Memory Configuration

Name             Origin             Length             Page   Attributes
*default*        0x00000000         0xffffffff           0

Linker script and memory map

Address of section .text set to 0x20001000
LOAD dataSegPad.o
LOAD partialImage.o
LOAD ctdt.o
LOAD symTbl.o

.text           0x20001000   0x1465f0
                0x20001000                wrs_kernel_text_start=.
                0x20001000                _wrs_kernel_text_start=.
 *(.text)
 .text          0x20001000   0x1318e8 partialImage.o
                0x2006c9f4                Sp12GetOvlyAddress
                0x200f144c                print64Mult
                0x20049a78                CPackageCounter::AddSendTimes(void)
                0x20101e28                sigPendInit
                0x20003310                AT91F_UDP_EpClear
                0x200ad2a0                mcastHashTblInsert
                0x20112530                dllEach
                0x200a10d4                _dfltu
                0x20009bbc                sysHwInit2
                0x20009db4                sysFlashWriteEnable
                0x201316d4                longjmp
                0x200a11e0                _dmul
                0x200ca7a8                ifShow
                0x20119cc0                flCall
                0x200033e8                AT91F_UDP_GetInterruptMaskStatus
                0x200a94ac                arpresolve
                0x200bdf4c                bsdGetsockopt
                0x20093f74                unsigned int type_info function
                0x20130c28                _sigCtxRtnValSet
                0x200f3138                putchar
                0x200c51ac                muxPollDevDel
                0x2006051c                C751SetFieldDelay1
                0x201253e8                msgQInit
                0x200a3ae4                __sub64
                0x2004c758                CModuleManager::Startup(unsigned char, unsigned char)
                0x200ca538                netTask
                0x20113640                fpTypeGet
                0x20051700                CTimerIDPool::Instance(void)
                0x200011e4                sysSerialHwInit
                0x2007d4ec                JpegLoadHuffmanTable
                0x2000ca6c                wdbTgtHasFpp
                0x200f7520                clock_gettime
                0x2004de8c                CStandbySystemMessage virtual table
                0x20071f1c                SPCTestBlue
                0x20084668                xmalloc
                0x2000e2a8                usrNetProtoInit
                0x20010a74                BSP_GetCurSysDateTimeBySecond
                0x200b5668                rt_maskedcopy
                0x200ccd44                routeCmd
                0x20126e9c                semCCoreInit
                0x2005037c                VOS_CreateCSem
                0x20131618                _insque
                0x200f72dc                classInstConnect
                0x200c3998                muxLinkHeaderCreate
                0x200a0e84                _dsub
                0x2012c18c                windSuspend
                0x2006b2c0                ScalWriteBackground
                0x2003cb50                C485Client::Instance(void)
                0x20061818                C751SetOutputPortOAOI2VerticalEnd
                0x20044c74                CLinkNode::operator!=(unsigned char const &) const
                0x20067b80                OvlyAdjustWnd
                0x2008fe70                __throw_type_match
                0x20127ac4                semMLibInit
                0x200f328c                putw
                0x2008485c                cplusMatchMangled
                0x200f562c                strcpy
                0x20112fbc                qPriListCreate
                0x200f5c10                asctime
                0x200c4bbc                muxDevStopAll
                0x20004db8                at91IntDevInit
                0x20095918                dllInsert
                0x2004384c                CSocketNode::GetDumbTimes(void) const
                0x2012aed4                taskIdListSort
                0x200a0684                _ll_sfrom_f
                0x200a4a0c                __ashldi3
                0x2000c878                usrWdbBp
                0x200f8288                fioFormatV
                0x2000153c                AT91F_PDC_SetRx
                0x20002b94                AT91F_US_DisableRx
                0x20096818                intVecBaseSet
                0x200a3970                __rem64
                0x201317f0                qJobTerminate
                0x200024e0                AT91F_PIO_GetOutputStatus
                0x2006d27c                Sp12GetHorizontalStart
                0x2011035c                xattrib
                0x20130be0                sigsetjmp
                0x2009a0e8                expm1
                0x20004350                at91SioDevInit
                0x200a76a8                ifreset
                0x200590c0                global constructors keyed to CMemoryPool::CMemoryPool(unsigned long, unsigned long, unsigned char)
                0x200cc82c                rcmd
                0x200546ac                CMemoryPool::AllocateBlock(void)
                0x20125558                msgQCreate
                0x2012e5ac                r14
                0x200134bc                BSP_Reset
                0x200cc57c                remLibInit
                0x200629a0                C751SetFieldRecognitionControl
                0x200a1ae8                cacheArm920tIInvalidateAll
                0x20001e48                AT91F_SPI_PutChar
                0x20093614                long long type_info function
                0x2009edd4                __cmpdf2
                0x20049df4                CProtocolInterface::Instance(void)
                0x20102b98                symTblDestroy
                0x2006c464                Sp12GetDeserSubUnit
                0x2010f9b4                cp
                0x20122e0c                wdbCtxExitNotifyHook
                0x20122b38                wdbExcLibInit
                0x2011ca20                flWriteProtected
                0x200c4dac                muxPollTask
                0x2009b50c                fabs
                0x20129f00                taskDeleteForce
                0x200f7080                cacheDrvFlush
                0x2012b388                taskShow
                0x2009a97c                log
                0x200cc634                iam
                0x2000ea20                BSP_MULTest
                0x200acfd4                in_ifscrub
                0x200333d0                OperRspCmdToNs(VWAS_CMD_S *, unsigned long, unsigned long)
                0x200a3e24                __diab_alloc_mutex
                0x20003f64                sysAuxClkDisable
                0x2005410c                CMemoryPool::CMemoryPool(unsigned long, unsigned long, unsigned char)
                0x20049770                CPackageCounter::CPackageCounter(void)
                0x20110d60                bcmp
                0x2011eb94                wdbRunsExternal
                0x2009c858                sqrt
                0x20044c2c                CLinkNode::operator==(unsigned char const &) const
                0x20092690                __user_type_info::contained_p(__user_type_info::sub_kind)
                0x200039d4                AT91F_US0_CfgPIO
                0x20061728                C751SetOutputPortOAOI2HorizontalEnd
                0x2005fbd8                FPGAovlySetColorkeyB
                0x20130bf0                setjmp
                0x200a1490                _f_add
                0x20099608                cosh
                0x2005edf4                FPGAovlySetDesktopVerticalEnd
                0x20127b18                semMCoreInit
                0x20001d0c                AT91F_SPI_CfgMode
                0x2004db40                CRebootSystemMessage::GetMessageID(void) const
                0x2006c640                Sp12GetScaleAddress
                0x200dcf68                tcp_attach
                0x20003438                AT91F_ST_EnableIt
                0x200a1a3c                cacheArm920tDClearDisable
                0x200bde98                bsdSetsockopt
                0x20109de0                moduleSegAdd
                0x2010dc90                lkAddr
                0x200f1d28                __sflags
                0x20130c00                _sigCtxSave
                0x200f3df8                tmpfile
                0x20001ed4                AT91F_SPI_IsInterruptMasked
                0x2009edd4                __eqdf2
                0x20049720                global constructors keyed to CMailBoxMap::m_spInstance
                0x2004a5bc                CProtocolInterface type_info function
                0x201134a8                rngNBytes
                0x20001aac                AT91F_SSC_EnableRx
                0x2005d1bc                FPGAdesEnableInputChannel
                0x200a4bec                __divdi3
                0x2005ad54                CVPNode::~CVPNode(void)
                0x2012da84                msgQEvLibInit
                0x200fbaac                ioctl
                0x2004a58c                CProtocolInterface virtual table
                0x20100f9c                pause
                0x200a1c4c                excEnterDataAbort
                0x200fbc14                writev
                0x20061c80                C751SetOutputPortACTHorizontalStart
                0x200d75b0                tcp_pulloutofband
                0x20092220                __class_type_info virtual table
                0x2007cd90                SPCVersion
                0x20003d14                sysClkRateGet
                0x2005ae04                CVPNode::GetPort(void) const
                0x200a49c8                __gcc_intrinsicsInit
                0x20002284                AT91F_PIO_CfgPeriph
                0x200a44d8                endEtherPacketDataGet
                0x200444dc                CAppInterface::Dispatch(S_MESSAGE &) const
                0x2002b8e4                CfgMgr::GetTempTh(BD_CMD_S *, unsigned long)
                0x2005f990                FPGAovlySetDesktopAdjustmentVerticalStart
                0x20012664                BSP_NandFlashReset
                0x20003048                AT91F_AIC_Open
                0x2007cdfc                JpegPrepareRangeLimitTable
                0x2011fd80                wdbCksum
                0x20013174                FileSysTest
                0x20071de0                SPCTestBlack
                0x2006a948                ScalCleanChannel
                0x20112e20                qPriBMapDelete
                0x20009e48                sysOutByte
                0x2000a63c                sysTffsFormat
                0x200f5980                strtok_r
                0x200a3c28                __uge64
                0x2012b60c                tickAnnounce
                0x20050560                VOS_DeleteMsgQue
                0x20044bfc                CLinkNode::GetSequenceNumber(void)
                0x201128d4                qFifoDelete
                0x20032980                CSoftTcpSocket::taskAccept(void *)
                0x200bf93c                ftpLogin
                0x200a1140                __floatdidf
                0x20060b64                C751WriteN8BitPixels
                0x20009d5c                sysProcNumSet
                0x2003f874                CEthnClient::tReceiver(void *)
                0x20112818                lstFind
                0x200af1e0                ip_drain
                0x200ff0d4                objFree
                0x200b9f00                soqremque
                0x2010bb60                spyStopCommon
                0x2011ea80                wdbExternRegsGet
                0x2005a568                CVideoPreview::tSender(void *)
                0x200011b8                sysBusTas
                0x2000157c                AT91F_PDC_EnableTx
                0x2004f234                mmtest
                0x2009ed5c                _d_feq
                0x20068290                OvlyWriteBackground
                0x20109fb4                moduleTerminate
                0x20073558                ProcessShowWnd
                0x2003b970                CProcAlarm::ProcBdSoftAlarm(void)
                0x20097418                mmuModifyHardCr
                0x20130748                fppTaskRegsSet
                0x20015968                delayUSec
                0x20002610                AT91F_PIO_GetInterruptMaskStatus
                0x200f947c                printf
                0x2004aa74                PF_GetLocalBoardID
                0x200f90c0                vsprintf
                0x20083a88                BitmapFormatFrameBuffer
                0x2005eed8                FPGAovlySetVerticalStart
                0x200e031c                random
                0x2008fcd4                global destructors keyed to __default_alloc_template<true, 0>::_S_end_free
                0x200205fc                writeFlash16
                0x20009824                sysSecEnetAddrGet
                0x2005ba54                DeserPowerOn
                0x200b4dec                rtfree
                0x20065840                OvlyGetVerion
                0x200f78fc                utime
                0x20016c84                BSP_AT91F_OR_PIO_CfgOutput
                0x200c4b54                muxAddrResFuncDel
                0x20084438                __pure_virtual
                0x200bf0c8                etherMultiAdd
                0x200530b4                CTimerManager::GetTimers(void)
                0x200fb79c                hashTblEach
                0x20017240                BSP_AT91F_PIO_InterruptEnable
                0x20060760                C751SetCpuWriteAddress
                0x201228a4                wdbTaskBpLibInit
                0x200442a0                CAppInterface::ReceiveMessage(unsigned short, S_MESSAGE *, int)
                0x2005e208                FPGAovlySetImage1Priority
                0x2000c63c                usrStatTblInit
                0x20124df4                eventRsrcSend
                0x20028dd4                SpiWrite
                0x20104700                tyDevRemove
                0x20083c40                BitmapDecode
                0x200f7ffc                excInit
                0x200ab000                arpintr
                0x200f3884                __sseek
                0x2012074c                wdbFuncCallLibInit
                0x2003e854                CDataPackage::GetDestinationMailBox(unsigned short &) const
                0x200449a0                CLinkNode::CLinkNode(unsigned char, unsigned char)
                0x20074d70                ProcessGetWindowCompensation
                0x20125308                kernelVersion
                0x2011ee00                wdbTask
                0x200024a8                AT91F_PIO_OutputEnable
                0x200ad324                in_delmulti
                0x2010aecc                shellLogin
                0x2001f928                BSP_DeleteSoft
                0x2000ec14                urgencyInit
                0x20070160                SPCGetWindowCompensation
                0x200c4ee4                muxTaskPrioritySet
                0x2011f1c4                wdbRpcReplyErr
                0x200caf04                netPoolShow
                0x20053dd8                PF_ModuleLoaded
                0x20017218                BSP_AT91F_PIO_GetOutputDataStatus
                0x20106088                b
                0x200f6e58                cacheInvalidate
                0x2000b95c                usrNetHostSetup
                0x20111614                bootScanNum
                0x20009e1c                sysInByte
                0x200590e8                global destructors keyed to CMemoryPool::CMemoryPool(unsigned long, unsigned long, unsigned char)
                0x201002ec                rebootHookAdd
                0x2009100c                exception::what(void) const
                0x20042f44                CProtocol type_info function
                0x200cdb4c                recv
                0x200d3d8c                in_pcballoc
                0x200497d4                CPackageCounter::~CPackageCounter(void)
                0x2004c18c                CModuleManager::RegisterSystemMessage(unsigned short, unsigned short)
                0x200633b8                C751SetVerticalShrinkInitialValue
                0x2000e35c                usrNetworkAddrCheck
                0x2000f3c2                BD_MAILBOX_OPER_BS
                0x200cd814                connect
                0x200c156c                icmpLibInit
                0x20014c5c                I2cDeviceBusy
                0x2011309c                qPriListRemove
                0x20043740                CSocketNode::SetBoardID(unsigned char)
                0x20071494                SPCWndToTop
                0x2005c710                DeserCloseChannel
                0x200bea2c                bsdRecvfrom
                0x200f9450                printErr
                0x200526c8                CTimerManager::tPoll(void *)
                0x2007ad88                SPCC751GetReg
                0x200190d0                BSP_LoadFpga_ALTERA
                0x2006229c                C751SetHorizontalEnlargementInitialValue
                0x200f3eb0                ungetc
                0x2005cd24                FPGAdesImage0SelectSerdes
                0x2011ee1c                wdbSuspendSystemHere
                0x200509e8                VOS_SendEvent
                0x200c5a34                muxTkSend
                0x200cafd4                netStackDataPoolShow
                0x20092a58                type_info::before(type_info const &) const
                0x20050cec                CPeriodicTimer virtual table
                0x200f80a4                excHookAdd
                0x2005e82c                FPGAovlySetImage1HorizontalEnd
                0x20121788                wdbSysBpLibInit
                0x2005d530                FPGAovlySetTest1
                0x2005cd5c                FPGAdesImage1SelectSerdes
                0x20126ac0                semBCoreInit
                0x20053e20                PF_UnloadModule
                0x2009eb90                _fabs
                0x200036c4                AT91F_SPI_CfgPMC
                0x2012c68c                windUndelay
                0x20002b70                AT91F_US_ResetTx
                0x20015ad0                I2cReadCpld
                0x20028854                SpiInit
                0x200932ac                __rtti_ptmd
                0x200b3e68                rn_delete
                0x200606ac                C751SetCpuReadAddress
                0x2004e974                sendtest
                0x2010bcf8                spyReportCommon
                0x2002acac                CfgMgr::GetTemp(BD_CMD_S *, unsigned long)
                0x20064288                C751SetField3MemoryWriteStartAddress
                0x20062560                C751SetVerticalZoomScale
                0x20017290                BSP_AT91F_PIO_GetInterruptMaskStatus
                0x2000879c                at91EthShow
                0x200a02bc                _feq
                0x20120618                wdbEventDeq
                0x20097e34                reschedule
                0x200c2924                ifIndexToIfName
                0x20041964                COnLinePackage::~COnLinePackage(void)
                0x20100ec0                sigemptyset
                0x200a3e74                __common_long_jmp
                0x2006aef0                ScalFillChannel
                0x200910f4                bad_exception type_info function
                0x200ac4ac                copyFromMbufs
                0x200db5cc                tcpRandHookAdd
                0x200928bc                __class_type_info::~__class_type_info(void)
                0x200f7fa4                errnoSet
                0x20126374                msgQShowInit
                0x200a039c                __divsf3
                0x2009eb38                __kernel_poly
                0x200a3b60                __gt64
                0x20063544                C751SetHorizontalShrinkCompensation
                0x2011cae0                flMap
                0x20034014                CTcpSocket virtual table
                0x2005d650                FPGAovlyGetBackgroundData
                0x200c2f90                inet_netof_string
                0x200327a4                CSoftTcpSocket::GetInstance(void)
                0x2005e910                FPGAovlySetImage2HorizontalStart
                0x200cd47c                routeMetricSet
                0x200b3010                rn_search
                0x200f575c                strerror
                0x20127fcc                semMGiveKern
                0x200bee20                bsdGetpeername
                0x2011ee70                wdbNotifyHost
                0x2012a90c                taskSpawn
                0x20013c54                CpLDDogClose
                0x2010ae94                shellPromptSet
                0x2004b788                CModuleManager::~CModuleManager(void)
                0x20016ed4                BSP_AT91F_PIO_GetInput
                0x2006bef8                Si5326Init
                0x201037b4                symTypeGet
                0x2011318c                qPriListInfo
                0x2004bd2c                CModuleManager::UnregisterModule(unsigned short)
                0x200d3d38                in_pcbinshash
                0x200c22a8                ifMaskGet
                0x2003b2e0                CProcAlarm::GetInstance(void)
                0x20112e30                qPriBMapResort
                0x20050230                VOS_GetSelfTaskID
                0x20106444                so
                0x20103d74                taskSwitchHookAdd
                0x2001f778                BSP_SoftWareUPTest
                0x201126ec                lstInsert
                0x2007d294                JpegCalculateMask
                0x200d2be8                igmp_fasttimo
                0x20044a4c                CLinkNode::SetBoardID(unsigned char)
                0x20016e08                BSP_AT91F_PIO_CfgdwDirectDrive
                0x200934bc                __dynamic_cast_2
                0x20006e34                at91EthMCastDel
                0x2005efbc                FPGAovlySetVerticalEnd
                0x20053b74                PF_KillTimer
                0x2000142c                sysSerialChanGet
                0x200060b4                Enable_mac_address
                0x200a038c                _frdiv
                0x200a1a98                cacheArm920tDFlush
                0x200bf5e8                ftpReplyGet
                0x20122aac                wdbDirectCallLibInit
                0x2011e340                wdbNptInt
                0x2010ae7c                shellHistory
                0x200f6df0                cacheUnlock
                0x2010e8bc                spyReport
                0x201132a0                rngBufGet
                0x20001174                sysMailboxConnect
                0x20013ca4                CpLDDogOpen
                0x20095f0c                excShowInit
                0x2002bacc                CfgMgr::GetSoftStatus(BD_CMD_S *, unsigned long)
                0x200a3eb0                tkRcvRtnCall
                0x2010782c                dbgTaskBpTrace
                0x20059344                COfflineSystemMessage virtual table
                0x2011d68c                fromUNALLONG
                0x200da740                tcp_setpersist
                0x2010ec58                dosFsConfigShow
                0x200f53cc                memmove
                0x20043ebc                CAppInterface::AllocateMessage(unsigned short, S_MESSAGE **)
                0x20123f50                xdr_WDB_TGT_INFO
                0x200f38f0                stdioInit
                0x200ff408                pathCondense
                0x20102d88                symTblAdd
                0x200b1b68                ip_output
                0x20003618                AT91F_SSC2_CfgPIO
                0x20095238                cacheArm920tLibInstall
                0x200035b0                AT91F_EMAC_CfgPIO
                0x2001f618                BSP_SoftWareUPinit
                0x2003e194                CCtrlPackage type_info function
                0x200bd9bc                bsdSockLibInit
                0x20131804                qJobDelete
                0x200f3bb8                stdioShowInit
                0x2011ebc0                wdbRunsTasking
                0x201294e4                taskUnsafe
                0x200031bc                AT91F_UDP_GetState
                0x200160a8                getVoltage
                0x2009eb80                _fneg
                0x200c2cdc                inet_makeaddr_b
                0x20003788                AT91F_TC1_CfgPMC
                0x20091094                exception type_info function
                0x20079154                WndGetNext
                0x200fb5c0                hashTblDelete
                0x2006a894                ScalCloseChannel
                0x2008fb7c                __malloc_alloc_template<0>::deallocate(void *, unsigned long)
                0x200c37bc                muxMCastAddrAdd
                0x20001d28                AT91F_SPI_CfgPCS
                0x2011d3dc                tffsDrv
                0x200979b4                semClear
                0x2000a740                usrBootLineInit
                0x2002a304                CfgMgr::SetNetStatus(BD_CMD_S *, unsigned long)
                0x200a05d4                __fixsfsi
                0x2002de80                alarmDebug
                0x200341e0                CDebugTcpSocket::~CDebugTcpSocket(void)
                0x20091218                bad_alloc virtual table
                0x200febac                memPartShow
                0x200922d0                bad_cast virtual table
                0x2011d65c                toUNALLONG
                0x20041f04                CPackage::GetSourceBD(unsigned char &) const
                0x20084488                cplusCallCtors
                0x20127bd8                semMCreate
                0x200bf764                ftpCommand
                0x20064648                C751GetChannel1InputVerticalSyncFrequency
                0x20060ed0                C751ReadN24BitPixels
                0x2005d380                FPGAovlyGetBasicAddress
                0x2005d0dc                FPGAdesSetImage3HorizontalStart
                0x20072b78                SPCMailboxProcess
                0x20131644                wdbDbgArchInit
                0x20064718                C751GetChannel1InputVerticalSyncPulseWidth
                0x2008fdac                cplusTerminate(void)
                0x2000f4fc                BSP_GetFpgaVer
                0x200cec48                telnetOutTask
                0x200903e0                __cp_push_exception
                0x2000e308                usrNetworkDevStart
                0x200fc5e4                iosOpen
                0x2000f3b8                MAILBOX_UPGRADE_NS_CANCEL
                0x20006c04                at91EthFlagsSet
                0x2002d438                CfgMgr type_info function
                0x200498d4                CPackageCounter::GetReceiveTimes(void) const
                0x200aa628                ether_sprintf
                0x2011ea0c                wdbExternRegsSet
                0x20075030                ProcessSetBackground
                0x2010a210                moduleIdFigure
                0x20003528                AT91F_SYS_CfgPMC
                0x20042054                CPackage::GetDataAddress(unsigned char *&) const
                0x201261ec                msgQNumMsgs
                0x200ca5bc                netJobAdd
                0x20041ed4                CPackage::GetDestinationBD(unsigned char &) const
                0x20093380                __rtti_array
                0x200a097c                _fcmple
                0x20126f08                semCInit
                0x2009f900                _dcmpge
                0x2010af58                shellLogout
                0x2000f35c                BSP_ReceiveUrgentFrame
                0x2007c75c                SPCUpdataVtrImage
                0x2007a86c                SPCSetChColor
                0x200ac984                set_if_addr
                0x20132678                xdrmem_create
                0x200ee028                dosFsDevCreate
                0x2009edd4                __gtdf2
                0x20123f8c                xdr_WDB_PARAM_WRAPPER
                0x2003ffd8                CEthnClient::tKeepAlive(void *)
                0x20096794                intLockLevelSet
                0x2004501c                CMailBoxMap::~CMailBoxMap(void)
                0x200f4488                atol
                0x200f7f58                __errno
                0x20092590                __user_type_info::~__user_type_info(void)
                0x201275e0                semFlush
                0x2009edc0                _dls
                0x2011f478                wdbSvcAdd
                0x200968cc                intRegsUnlock
                0x200320c0                CTcpSocket::ProcTimer(void)
                0x200833a8                BitmapDecode2FrameBuffer
                0x201095fc                loadModule
                0x200508bc                VOS_GetTick
                0x20109670                addSegNames
                0x20017080                BSP_AT91F_PIO_IsSet
                0x200961b0                intUnlock
                0x200437f8                CSocketNode::AddDumbTimes(void)
                0x20016528                fromBCD
                0x2012a2e4                taskInit
                0x20019d78                UrgencyJobAdd
                0x200c4090                endFindByName
                0x20060814                C751SetCpuData
                0x2007f7e0                JpegLoadHeader
                0x20078f80                WndRemove
                0x2000107c                sysIntStackSplit
                0x200fc5a8                iosDelete
                0x201122ec                bootBpAnchorExtract
                0x2000c1f0                usrMmuInit
                0x200a2dd0                __DIAB_wr_pk_db
                0x20103348                symFindByName
                0x20045b98                tagMailBoxNode::operator<(unsigned short) const
                0x20096678                intEnable
                0x20109fc4                moduleSegFirst
                0x20112638                lstExtract
                0x20107a68                dbgTaskBpTrap
                0x200a0bf0                __fpl_cmpreturn
                0x200e08f8                cbioLock
                0x20094424                signed char type_info function
                0x20003a74                AT91F_UDP_CfgPMC
                0x2001ab64                ftpdDelete
                0x20091264                bad_alloc type_info function
                0x20017350                BSP_AT91F_PIO_MultiDriverEnable
                0x200a3234                __ff1l
                0x200b6550                rt_fixdelete
                0x201130ac                qPriListResort
                0x200504d0                VOS_GiveSem
                0x20036a50                CSoftUpGrade::Proc15Timer(void)
                0x20103880                symShow
                0x2004f84c                getmodules
                0x2001fadc                BSP_SoftBackUP
                0x20013408                FlashReadTest
                0x2006c81c                Sp12GetScaleSubUnit
                0x20061d70                C751SetOutputPortACTHorizontalWidth
                0x20004044                sysAuxClkRateGet
                0x200f7d18                getenv
                0x20003928                AT91F_US2_CfgPMC
                0x200d1790                netClFree
                0x20131678                wdbDbgTraceModeSet
                0x201281f8                semMPendQPut
                0x2009c86c                ceil
                0x2002d3d8                CfgMgr virtual table
                0x200bdb4c                bsdSend
                0x2000d1ac                wdbMbufFree
                0x20127254                semDestroy
                0x20113114                qPriListAdvance
                0x200fb2a4                fppShowInit
                0x20043b5c                CAppInterface::~CAppInterface(void)
                0x200a3e38                __diab_lock_mutex
                0x200f9508                fioRead
                0x20096708                intLibInit
                0x20041d88                CPackage::CPackage(unsigned char *)
                0x20039b64                CSoftUpGrade type_info function
                0x200a15d4                _frsb
                0x2005cf8c                FPGAdesSetImage1VerticalStart
                0x20044ce0                CLinkNode type_info function
                0x2010ce28                netHelp
                0x200f826c                fioLibInit
                0x2003ea84                CDataPackage::AddRecvCounter(CPackageCounter &) const
                0x2010a9c0                moduleCheck
                0x20012690                BSP_NandFlashFileGetLength
                0x200ffea4                ptyDevRemove
                0x201251b8                kernelInit
                0x2001245c                BSP_NandFlashFileInit
                0x200e3b58                dosChkEntryMark
                0x2000197c                AT91F_SSC_SetBaudrate
                0x2006cdac                Sp12GetOvlySubDvi
                0x200a5368                __make_dp
                0x200f3524                __srget
                0x2011ca14                flBufferOf
                0x200499c8                CPackageCounter::SetReceiveOKTimes(unsigned long)
                0x2010a27c                moduleInit
                0x2009c9f8                floor
                0x200f6d20                cacheLibInit
                0x200d3710                in_pcbnotify
                0x200c4520                muxShow
                0x200660f4                OvlyInitChannel
                0x200d17c8                netMblkClFree
                0x2012cc14                windPendQFlush
                0x200d1874                netClBlkGet
                0x20036e04                CSoftUpGrade::ProcNsCmd(VWAS_CMD_S *, unsigned long)
                0x200af8a0                ip_dooptions
                0x200fdef8                memPartInit
                0x201075c8                dbgTaskBpBreakpoint
                0x2003ccf4                C485Client::Uninstance(void)
                0x2004580c                CMailBoxMap::GetEvent(unsigned short, unsigned long &) const
                0x200fc9c8                iosFdNew
                0x200f3678                setlinebuf
                0x200f11fc                dosVDirLibInit
                0x20049974                CPackageCounter::GetRcvCtrlPackages(void) const
                0x200bab58                sbdrop
                0x200bf090                bsdShutdown
                0x200f457c                labs
                0x201123a4                bufAlloc
                0x20028b54                PinAClk
                0x2000f3f8                BSP_SoftStart
                0x2009f538                _ll_sfrom_d
                0x2003d0e0                C485Client::tSender(void *)
                0x200a039c                _fdiv
                0x200167c4                SetRtc
                0x2007b1e4                SPCSetWndCompensate
                0x200f2de4                gets
                0x200b31f0                rn_match
                0x2012428c                xdr_WDB_STRING_T
                0x20075ed4                ProcessErrorCmd
                0x2012e554                r3
                0x20091038                bad_exception virtual table
                0x200df254                soreceive
                0x20003408                AT91F_UDP_IsInterruptMasked
                0x20071328                SPCWndHide
                0x200a5804                __make_fp
                0x200453a0                CMailBoxMap::Delete(unsigned short const &)
                0x20063058                C751SetShrinkCompensationControl
                0x200283d0                inflate
                0x20042504                CProtocol::CProtocol(void)
                0x20109e94                moduleSegGet
                0x200a3284                __ff1ll
                0x200b3448                rn_insert
                0x200c34dc                muxPollReceive
                0x20009d84                sysLedsReadWrite
                0x20014b48                I2cWriteByte
                0x20112908                qFifoGet
                0x20001df0                AT91F_SPI_Close
                0x2005ec2c                FPGAovlySetImage3VerticalEnd
                0x200f6e8c                cacheClear
                0x200f4494                bsearch
                0x200a89f0                if_attach
                0x2012e008                cplusLoadFixup
                0x20112cac                qCalibrate
                0x200d1b70                netMblkChainDup
                0x2004f990                timerDbg
                0x2010a804                moduleShow
                0x20003164                AT91F_UDP_DisableEp
                0x200858d8                cplus_mangle_opname
                0x200c38ac                muxUnbind
                0x20003708                AT91F_TC5_CfgPMC
                0x20051338                CTimer::Reset(void)
                0x2003d988                CCtrlPackage::CCtrlPackage(unsigned char *)
                0x2005d034                FPGAdesSetImage2HorizontalEnd
                0x2005f438                FPGAovlySetImage1ACTVerticalStart
                0x2010d618                version
                0x200a2bb8                sfpFloatNormalize
                0x200c23cc                ifAddrDelete
                0x200ffd8c                ptyDevCreate
                0x20120580                wdbEventNodeInit
                0x20050a2c                VOS_ReceiveEvent
                0x2004db0c                CRebootSystemMessage::~CRebootSystemMessage(void)
                0x200fb2b4                fppTaskRegsShow
                0x200a1608                __subsf3
                0x2012e5bc                psrShow
                0x2008b518                _sch_istable
                0x201047d4                tyAbortFuncSet
                0x20020460                resetflash
                0x2000e508                usrKernelCoreInit
                0x2004df70                CStartupSystemMessage::CStartupSystemMessage(unsigned char, unsigned char)
                0x200fc7d4                iosWrite
                0x200c4ec8                muxTaskDelayGet
                0x2001831c                ResetFpga_LATTICE
                0x2004e1c8                CStartupSystemMessage virtual table
                0x200d5a60                icmp_ctloutput
                0x200e08d8                cbioUnlock
                0x200fe998                memAddToPool
                0x200fc4cc                iosFdSet
                0x200508dc                VOS_GetSysClkRate
                0x20093024                __rtti_attr
                0x20017190                BSP_AT91F_PIO_InputFilterDisable
                0x20128a1c                taskNameToId
                0x2006e3d8                SPCSetConfigure
                0x20002d54                AT91F_US_SetIrdaFilter
                0x20029ea0                CfgMgr::ProcProtocalVer1(BD_CMD_S *, unsigned long)
                0x20124770                eventReceive
                0x20060d10                C751WriteN24BitPixels
                0x20102e38                symAdd
                0x2000169c                AT91F_PDC_Open
                0x20008094                at91EthRbdProcess
                0x200a02bc                _f_feq
                0x20112c64                qGetExpired
                0x20112cec                qEach
                0x20123c40                xdr_WDB_MEM_XFER
                0x20001a40                AT91F_SSC_Configure
                0x20003d38                sysClkRateSet
                0x20044cbc                CLinkNode virtual table
                0x200a1790                _ffltu
                0x200f4bd4                qsort
                0x200a0320                _f_flt
                0x200409f4                CEthnClient type_info function
                0x20044aa8                CLinkNode::SetBoardType(unsigned char)
                0x200dbc80                tcp_close
                0x200fc300                iosNextDevGet
                0x200a3f38                endFlagsClr
                0x200fe0f8                memPartBlockIsValid
                0x20076ef8                SPCTaskEntry
                0x20128388                semInfo
                0x2004f20c                gettimers
                0x2005f51c                FPGAovlySetImage1ACTVerticalEnd
                0x2000a7b8                usrBootLineCrack
                0x200f2344                fscanf
                0x200f1b64                fgets
                0x200f5cd0                __daysSinceEpoch
                0x2011cc7c                flSocketSetBusy
                0x200329b0                CAlarmTcpSocket::CAlarmTcpSocket(void)
                0x200643f4                C751SetMemoryReadLineFeedWidth
                0x200b919c                pfctlinput
                0x20032300                CCfgTcpSocket::CCfgTcpSocket(void)
                0x20084474                cplusDtorsLink
                0x20105dd8                bdall
                0x20112740                lstNext
                0x20021dd4                WriteLM73
                0x200302e0                CTcpSocket::CTcpSocket(unsigned long, unsigned long)
                0x2004b528                CModuleManager::CModuleManager(void)
                0x20071eb4                SPCTestGreen
                0x200980cc                workQAdd0
                0x200f5d68                __getTime
                0x200757b0                ProcessSetDesktop
                0x20001670                AT91F_PDC_IsNextRxEmpty
                0x200978a8                semQPut
                0x200f7b5c                envPrivateCreate
                0x200926b0                __user_type_info::contained_nonpublic_p(__user_type_info::sub_kind)
                0x20093ac4                char type_info function
                0x2012e5b4                cpsr
                0x200635e0                C751SetVerticalShrinkCompensation
                0x200a05d4                _ffix
                0x2004e154                CStartupSystemMessage::WriteMessage(unsigned char *)
                0x200d3a40                in_rtchange
                0x200172b8                BSP_AT91F_PIO_GetInterruptStatus
                0x201126a8                lstFirst
                0x2003911c                CSoftUpGrade::GetFileNo(unsigned char, unsigned char, unsigned char, unsigned char &)
                0x201033f4                symByValueAndTypeFind
                0x2000e884                BSP_UrgencySetMulAdd
                0x2004a84c                PF_CreateMailBox
                0x200adb9c                in_control
                0x20123d70                xdr_WDB_RT_INFO
                0x20014a10                I2cStop
                0x200143e0                BSP_GetPcbVer
                0x200605bc                C751SetPoclkControl
                0x2000e3a0                usrNetRemoteInit
                0x2007aec8                SPCWriteByte
                0x20092738                __si_type_info::~__si_type_info(void)
                0x200845b4                cplusDemanglerInit
                0x20014bb4                I2cReadByte
                0x2009cc34                __ieee754_rem_pio2
                0x20003908                AT91F_US3_CfgPMC
                0x200f2c5c                getc
                0x200ee608                dosFsHdlrInstall
                0x2007ac00                SPCC751SetReg
                0x200cd398                rtrequestDelEqui
                0x20112dcc                qPriBMapCreate
                0x2012a21c                taskTcb
                0x2004f320                getmailboxes
                0x200fdc1c                memFindMax
                0x2005d56c                FPGAovlyGetTest1
                0x2010d0a8                repeat
                0x2012e264                _dbgRetAdrsGet
                0x20090314                unexpected(void)
                0x200a3cb0                __ule64
                0x20001dac                AT91F_SPI_SendFrame
                0x200342dc                CTcpSocket type_info function
                0x2010b5dc                shell
                0x2012b704                tick64Set
                0x200cd584                sockLibAdd
                0x2010c464                timexHelp
                0x2004e0d8                CStartupSystemMessage::~CStartupSystemMessage(void)
                0x201196a8                replaceFATsector
                0x2011345c                rngIsFull
                0x200a1d8c                mmuArm920tAEnable
                0x2006ac30                ScalSetTopWnd
                0x20016c04                BSP_AT91F_OR_PIO_CfgPeriphB
                0x200f53b0                memcpy
                0x20109558                loadModuleAtSym
                0x200d19d0                netClBlkJoin
                0x200d6330                rip_usrreq
                0x20112974                qFifoEach
                0x2011c9f8                flSocketNoOf
                0x20013f44                BSP_FeedHardDog
                0x200a7fe4                if_slowtimoRestart
                0x20122318                udpCommIfInit
                0x200ad198                in_broadcast
                0x20010d98                BSPGetSoft
                0x200cafec                mbufShow
                0x200c69ec                netDevCreate
                0x200599d8                CVideoPreview::CVideoPreview(void)
                0x200f36e0                setvbuf
                0x20059de0                CVideoPreview::Instance(void)
                0x200a1db0                mmuArm920tTLBIDFlushEntry
                0x2010a9e0                moduleNameGet
                0x2010ad98                shellRestart
                0x20035c98                trace0(char const *, char const *, unsigned long)
                0x2012e584                r9
                0x20100aa0                selectInit
                0x200cbf8c                ping
                0x2006049c                C751GetOutputSyncControl
                0x20003e30                sysAuxClkConnect
                0x200a0844                _ll_ufrom_f
                0x200a2730                __POL
                0x20001130                sysBusIntAck
                0x2005e748                FPGAovlySetImage1HorizontalStart
                0x20090328                __cp_exception_info
                0x200a3e08                __diab_atomic_restore
                0x200a11e0                _d_mul
                0x201293cc                taskSafe
                0x20043824                CSocketNode::ResetDumbTimes(void)
                0x2005faf0                FPGAovlySetColorkeyR
                0x20001f3c                AT91F_TC_GetInterruptMaskStatus
                0x200711c0                SPCWndShow
                0x200ff668                pathSplit
                0x2011e9ec                wdbExternRegSetObjAdd
                0x200a10e0                __floatsidf
                0x200a7eb8                if_qflush
                0x20016efc                BSP_AT91F_PIO_IsInputSet
                0x20061be0                C751SetPoclkReferenceDividing
                0x200a3d38                __mul6432
                0x200ba1fc                socantrcvmore
                0x2009feb4                __dunder
                0x200fc214                ioGlobalStdGet
                0x200f3028                perror
                0x2001437c                BSP_FlashWriteEnable
                0x20041dcc                CPackage::~CPackage(void)
                0x2012dccc                semEvLibInit
                0x20002588                AT91F_PIO_IsInputFilterSet
                0x20049884                CPackageCounter::AddRcvDataPackages(void)
                0x20002650                AT91F_PIO_IsInterruptMasked
                0x200ff188                pathParse
                0x2004fb60                memTest
                0x2009edd4                __ltdf2
                0x2006dc50                Sp12GetC751InputChannelWidthScale
                0x20064988                C751GetOutputVerticalSyncCycle
                0x20096698                intDisable
                0x2004cb50                CModuleManager::BoardOffline(unsigned long)
                0x20110dec                swab
                0x2005cc3c                FPGAdesSetTest1
                0x20097a0c                vxTaskEntry
                0x200a1e74                __fpl_fcheck_NaN2
                0x20106ce4                dbgPrintCall
                0x200fbfa4                creat
                0x20095e40                excVecSet
                0x200ff2f4                pathBuild
                0x20001f20                AT91F_TC_InterruptDisable
                0x2011c0a4                mountFTL
                0x2004e62c                CSystemMessage type_info function
                0x2003068c                CTcpSocket::~CTcpSocket(void)
                0x200ea170                dosFsFmtLibInit
                0x2003df1c                CCtrlPackage::GetType(unsigned char &) const
                0x20035b74                BY2DW
                0x201047ec                tyBackspaceSet
                0x20050ca0                CPeriodicTimer::Tick(void)
                0x20017058                BSP_AT91F_PIO_GetStatus
                0x20033060                CDebugTcpSocket::SendMsgToMailBox(unsigned char *, unsigned long, int, unsigned long)
                0x20110dc8                bswap
                0x20016d80                BSP_AT91F_PIO_CfgOpendrain
                0x2005ca98                FPGAdesGetHardwareID
                0x200fb82c                hashFuncIterScale
                0x200038a4                AT91F_PIOA_CfgPMC
                0x20015fa8                I2cCpldReset
                0x200025d8                AT91F_PIO_InterruptEnable
                0x200f32c8                puts
                0x20064a08                C751GetInterruptStatus
                0x200f7624                clock_settime
                0x200a1c6c                excEnterUndef
                0x200a02f8                _fgeq
                0x2010f0e0                copy
                0x200fb92c                intRestrict
                0x20061a70                C751SetOutputBackground0
                0x200caff8                netShowInit
                0x2010e7e4                ts
                0x200189e8                LoadFpga_LATTICE
                0x200f7f60                errnoGet
                0x200c2f38                inet_ntoa_b
                0x200fd678                memPartFindMax
                0x20060058                C751GetBasicAddress
                0x20122f84                wdbDbgBpGet
                0x20130d78                taskArgsGet
                0x200dde30                soaccept
                0x201034a4                symByValueFind
                0x200f15b0                islower
                0x20112510                dllCount
                0x2010ec74                dosFsVolOptionsSet
                0x200042a0                TestBspTimer
                0x2002029c                sysSectorErase16
                0x2004e5e0                CSystemMessage virtual table
                0x200719ec                SPCWndResize
                0x200a1608                _f_sub
                0x200018a4                AT91F_DBGU_GetInterruptMaskStatus
                0x200149c8                i2cStart
                0x2003b4b4                CProcAlarm::ProcAlarm(void)
                0x200a43dc                endEtherAddressForm
                0x200287e4                GetSi5326Reg
                0x200a08b4                _ll_ufrom_f_r
                0x20022080                TestLm73
                0x2005c8f8                FPGAdesSetBasicAddress
                0x200911fe                nothrow
                0x200fdbb8                memOptionsSet
                0x200f6f64                cacheDmaFree
                0x200409b4                CEthnClient virtual table
                0x20118444                yyparse
                0x20006f78                at91EthStop
                0x2010f9a0                llr
                0x20112508                dllTerminate
                0x200902e4                set_terminate(void (*)(void))
                0x20112bc4                qPut
                0x200f1640                tolower
                0x200d60e0                rip_output
                0x200f7794                rewinddir
                0x2011fd04                wdbMemTest
                0x20130738                fppArchInit
                0x20002ab4                AT91F_US_Configure
                0x20062e98                C751SetInputImageControl
                0x20113360                rngBufPut
                0x2011c42c                flMount
                0x200f5338                system
                0x200923b8                type_info::operator!=(type_info const &) const
                0x200f186c                feof
                0x20125b30                msgQDelete
                0x2012c328                windPrioritySet
                0x200dc6c8                tcp_canceltimers
                0x200b4b6c                route_init
                0x200a7d30                link_rtrequest
                0x20003454                AT91F_ST_DisableIt
                0x2010c2a0                spyComTask
                0x200502a4                VOS_SetPriority
                0x200c2390                ifAddrGet
                0x2005d5a8                FPGAovlySetTest2
                0x200bff50                ftpTransientConfigGet
                0x2011cb64                flSetWindowBusWidth
                0x200fedcc                memPartInfoGet
                0x200545bc                CMemoryPool::~CMemoryPool(void)
                0x200fe9ac                malloc
                0x200912a0                bad_alloc::what(void) const
                0x200fbd00                remove
                0x200a6e48                __udivsi3
                0x200a1798                _f_itof
                0x2004cc70                CModuleManager::BoardOnline(unsigned long)
                0x200fc2b8                isatty
                0x20130c38                _sigCtxSetup
                0x2007aab0                SPCFpgaGetReg
                0x20131680                wdbDbgGetNpc
                0x200014fc                AT91F_PDC_SetNextRx
                0x200a3e34                __diab_free_mutex
                0x200d51a8                icmp_input
                0x2004f124                starttimer
                0x20090508                __uncatch_exception
                0x200c224c                ifFlagSet
                0x200027c0                AT91F_PIO_OutputWriteEnable
                0x2000f3b6                MAILBOX_UPGRADE_NS
                0x200bed44                bsdGetsockname
                0x2005e0a0                FPGAovlySetControl
                0x200c23e4                ifRouteDelete
                0x2011d2b0                tffsRawio
                0x2000d108                wdbMbufAlloc
                0x20081a3c                JpegReadFile
                0x2007e644                JpegConvert8x8YToRGB
                0x200cedc4                telnetd
                0x2003f144                CEthnClient::CEthnClient(void)
                0x20097a68                vxMemArchProbe
                0x200a0e84                _d_sub
                0x2005b0c4                CVPNode::InitListener(void)
                0x200b1410                ip_ctloutput
                0x2004524c                CMailBoxMap::Insert(unsigned short, unsigned long, unsigned short, int, unsigned long, int)
                0x2005cee4                FPGAdesSetImage0VerticalEnd
                0x201129c4                qInit
                0x2000239c                AT91F_PIO_IsInputSet
                0x200a3674                __div64
                0x200a3a88                __asr64
                0x20061890                C751SetOutputPortOAOI3HorizontalStart
                0x200a0c70                _d_add
                0x201289c8                taskRegsSet
                0x2005d618                FPGAovlySetBackgroundData
                0x2012a998                taskRestart
                0x20073e04                ProcessAdjustWnd
                0x2009114c                bad_exception::bad_exception(void)
                0x2001514c                I2cReadSeq
                0x200028e8                AT91F_TWI_DisableIt
                0x2003b4f8                CProcAlarm::ProcCpuUsage(void)
                0x2009d404                __kernel_cos
                0x2004127c                CKeepAlivePackage virtual table
                0x20074080                ProcessSetConfigInfo
                0x2009b4cc                ldexp
                0x200a0bcc                _fp_trapveneer
                0x20122208                wdbVioChannelUnregister
                0x200f7948                envLibInit
                0x200fb8d8                hashKeyStrCmp
                0x200a0334                __lesf2
                0x200f7518                clock_setres
                0x20053b14                PF_SetTimer
                0x200f7f6c                errnoOfTaskGet
                0x20001320                sysSerialHwInit2
                0x200d1294                netPoolKheapInit
                0x200a1b98                cacheArchIntLock
                0x2008fb88                __default_alloc_template<true, 0>::deallocate(void *, unsigned long)
                0x2010afb8                shellIsRemoteConnectedGet
                0x200cc588                remCurIdGet
                0x20112724                lstAdd
                0x2004b05c                CModule::LoadModule(void)
                0x20125b40                msgQSend
                0x20017130                BSP_AT91F_PIO_IsOutputSet
                0x200174b0                BSP_AT91F_PIO_OutputWriteEnable
                0x2009f6a0                __fixunsdfsi
                0x200de364                soshutdown
                0x20061908                C751SetOutputPortOAOI3HorizontalEnd
                0x2012cac0                windReadyQPut
                0x200843dc                __pure_virtual_called
                0x200b197c                ip_mloopback
                0x200846cc                cplusDemanglerStyleSet
                0x200114d8                BSP_SetCurTimeTest
                0x200086c8                at91EthTbdProcess
                0x200f634c                __getDstInfo
                0x2010af38                shellLoginInstall
                0x20002680                AT91F_PIO_IsInterruptSet
                0x20034410                CDebugTcpSocket type_info function
                0x200cdaac                recvfrom
                0x2010e9e8                spyStop
                0x200ddd70                soabort
                0x200a33ac                __rem32
                0x20112fac                qPriListInit
                0x2013221c                xdr_bytes
                0x20002da8                AT91F_MCI_EnableIt
                0x200509c4                VOS_GetBoardType
                0x200be36c                bsdSendto
                0x20113118                qPriListGetExpired
                0x2011c5bc                flIntelIdentify
                0x200601b8                C751SetCh1MainControl
                0x200f78b8                statfs
                0x2001640c                eepromRead
                0x2011cd98                flSetPowerOnCallback
                0x20003018                AT91F_AIC_IsPending
                0x2012af58                taskRegsShow
                0x20032658                CSoftTcpSocket::CSoftTcpSocket(void)
                0x2012848c                semShow
                0x201221e8                wdbVioLibInit
                0x2011cba4                flInitSockets
                0x200a7ef8                if_down
                0x20002500                AT91F_PIO_IsOutputSet
                0x20028e9c                SpiRead
                0x2007c64c                SPCUpdataCallbacke
                0x20042ddc                CProtocol::RegisterNotify(unsigned char, void (*)(unsigned long))
                0x200f51b8                strtoul
                0x2012896c                taskBpHookSet
                0x2005ed84                FPGAovlySetDesktopHorizontalEnd
                0x20131820                qJobPut
                0x200c0f94                hostTblInit
                0x20002d10                AT91F_US_ReceiveFrame
                0x20004068                sysAuxClkRateSet
                0x2008efd0                cplus_demangle_v3
                0x200acd80                inet_netmatch
                0x20104450                ttyDrv
                0x2000e338                usrNetworkBoot
                0x200744b8                ProcessGetConfigInfo
                0x20054944                CMemoryPool::GetInfo(unsigned char &, unsigned long &, unsigned long &) const
                0x200acdb4                in_localaddr
                0x200f74c0                clock_getres
                0x20049834                CPackageCounter::AddReceiveOKTimes(void)
                0x20114e58                ledRead
                0x20072a78                SPCConfigProcess
                0x2011f300                wdbRpcNotifyHost
                0x200968b8                intRegsLock
                0x200902dc                __default_unexpected(void)
                0x200938e4                short type_info function
                0x200ba2dc                soisdisconnecting
                0x200f7274                classShowConnect
                0x201309b0                semMGive
                0x200a1d84                mmuArm920tDacrSet
                0x200c5ad0                muxTkPollReceive
                0x2006bfcc                Si5326GetReg
                0x20093524                void type_info function
                0x2005e580                FPGAovlySetImage0HorizontalStart
                0x200cf998                tftpErrorCreate
                0x2009619c                intLock
                0x200b659c                rtredirect
                0x200fc6f8                iosRead
                0x200fc570                iosCreate
                0x2005e360                FPGAovlySetDesktopPriority
                0x2009f6a0                _dfixu
                0x200f15e0                ispunct
                0x20102b14                symTblCreate
                0x20017378                BSP_AT91F_PIO_MultiDriverDisable
                0x20037e78                CSoftUpGrade::CancelUpgrade(VWAS_CMD_S *, unsigned long)
                0x2007eb74                JpegConvertYCbCrToRGB
                0x20091b7c                __class_type_info::do_upcast(__user_type_info::sub_kind, type_info const &, void *, __user_type_info::upcast_result &) const
                0x20003490                AT91F_ST_IsInterruptMasked
                0x200a1bc4                armInitExceptionModes
                0x200a6844                __udivmoddi4
                0x2012bf2c                wdShowInit
                0x2002ab30                CfgMgr::GetSoftVer(BD_CMD_S *, unsigned long)
                0x20083f10                BitmapEncode
                0x200f4680                wctomb
                0x2011d460                flTakeMutex
                0x20041008                CKeepAlivePackage::~CKeepAlivePackage(void)
                0x2012cedc                windPendQRemove
                0x201008e0                selNodeAdd
                0x200686a4                OvlyShowBackground
                0x2009fa00                _drem
                0x2003e970                CDataPackage::GetDataLength(unsigned short &) const
                0x200a2e0c                __DIAB_wr_pk_fl
                0x2000fc38                BSP_BoardIsOnline
                0x200c672c                muxTkBindUpdate
                0x2012bec0                wdTick
                0x200951d4                bfillBytes
                0x2000b8d8                usrMuxLibInit
                0x2010eff4                rmdir
                0x20002c80                AT91F_US_PutChar
                0x200a4164                endObjInit
                0x20112d10                qPriBMapListCreate
                0x200a7acc                ifaof_ifpforaddr
                0x2006e198                SPCGetDeviceStatus
                0x200134e4                BSP_Debug
                0x200f46d8                wcstombs
                0x200e09cc                cbioModeSet
                0x20112590                lstConcat
                0x2005e5f0                FPGAovlySetImage0VerticalStart
                0x200cd610                socket
                0x20100440                select
                0x2008fef4                __get_eh_info
                0x20068b74                OvlySetTestGreen
                0x200ca408                netLibGeneralInit
                0x2000aebc                usrEndLibInit
                0x200f9564                fioRdString
                0x2005f7c8                FPGAovlySetImage3ACTVerticalStart
                0x2001156c                BSP_GetCurTimeTest
                0x20059f84                CVideoPreview::StartVideoPreview(unsigned char, unsigned char)
                0x200a17a4                __fflt_normalise
                0x200e4c10                dosFsChkTree
                0x200f776c                readdir
                0x200c385c                muxMCastAddrGet
                0x200f2f04                __smakebuf
                0x201314a4                cksum
                0x200f78ac                fstatfs
                0x20125b38                msgQTerminate
                0x20110d18                ramDiskShow
                0x20009dc4                sysIntEnablePIC
                0x2012bf64                wdShow
                0x2002fe3c                CheckVoltageUniteSupport(unsigned long)
                0x200de44c                sofree
                0x200e1d40                dcacheDevEnable
                0x200bb59c                arpLibInit
                0x20044e8c                CMailBoxMap::CMailBoxMap(void)
                0x200a3e5c                __diab_free_semaphore
                0x2005f590                FPGAovlySetImage2ACTHorizontalStart
                0x200a030c                _f_fle
                0x2007f78c                JpegInitDecoding
                0x201047f8                tyDeleteLineSet
                0x2010695c                l
                0x2012e56c                r6
                0x20091d64                __class_type_info::do_dyncast(int, __user_type_info::sub_kind, type_info const &, void *, type_info const &, void *, __user_type_info::dyncast_result &) const
                0x2010d2b8                checkStack
                0x200aa57c                _arpCmd
                0x200ff754                pipeDevCreate
                0x2007d30c                JpegInitQT
                0x20044b58                CLinkNode::GetDumbTimes(void) const
                0x2011d584                flCurrentTime
                0x20001bec                AT91F_SSC_GetStatus
                0x20103774                symNameGet
                0x20080b58                JpegResync
                0x2011ebb0                wdbIsNowExternal
                0x200f15f8                isspace
                0x200dd1f4                tcp_disconnect
                0x200c42ac                muxBind
                0x2005929c                COfflineSystemMessage::GetMessageID(void) const
                0x200a5568                __unpack_d
                0x2008fa20                __default_alloc_template<true, 0>::_Lock::~_Lock(void)
                0x20002738                AT91F_PIO_A_RegisterSelection
                0x200a1da0                mmuArm920tADisable
                0x20061c30                C751SetPoclkFeedbackDividing
                0x20051394                CTimer type_info function
                0x201126b0                lstGet
                0x20001b1c                AT91F_SSC_EnableIt
                0x20091674                __rtti_user
                0x200a3280                __ff1
                0x2004f154                stimer
                0x2004b9b8                CModuleManager::tModuleManager(void *)
                0x20049f98                CProtocolInterface::SendMessage(S_MESSAGE &)
                0x200c317c                rawIpLibInit
                0x200f1a04                fflush
                0x20030b9c                CTcpSocket::StartRecv(unsigned long)
                0x2009f4a4                _dfix_r
                0x2009f864                _ll_ufrom_d_r
                0x20112920                qFifoRemove
                0x20003c54                sysClkDisable
                0x2004dedc                CStandbySystemMessage type_info function
                0x2011f968                wdbCtxLibInit
                0x200e0954                cbioRdyChgdGet
                0x2005ca24                FPGAdesGetTestVersion
                0x2010c868                timexFunc
                0x20051240                CTimer::GetTimerID(void)
                0x20131e70                xdr_void
                0x200917c0                __user_type_info::dyncast(int, type_info const &, void *, type_info const &, void *) const
                0x20002420                AT91F_PIO_Enable
                0x2012d8a8                workQInit
                0x200ddfb0                soconnect2
                0x20009df0                sysIntDisablePIC
                0x2007cfd0                JpegSkipKBits16
                0x2009d6b0                __kernel_sin
                0x200a0248                __extendsfdf2
                0x2011d5c8                flCurrentDate
                0x2002121c                flwAmdIdentify
                0x2010eb70                devSplit
                0x200bb7e0                arpAdd
                0x201246d0                eventTerminate
                0x20002790                AT91F_PIO_IsAB_RegisterSet
                0x2003d540                C485Client virtual table
                0x200592e4                COfflineSystemMessage::WriteMessage(unsigned char *)
                0x20127500                semGiveDefer
                0x200a0c70                __adddf3
                0x2012e55c                r4
                0x200fe654                memPartAlignedAlloc
                0x200a0334                __nesf2
                0x200cc65c                whoami
                0x20014d10                I2cInit
                0x20091930                __user_type_info::do_dyncast(int, __user_type_info::sub_kind, type_info const &, void *, type_info const &, void *, __user_type_info::dyncast_result &) const
                0x200ccff4                mRouteEntryAdd
                0x200cd53c                sockLibInit
                0x20049b18                CPackageCounter::GetSendTimes(void) const
                0x2008f6f4                __malloc_alloc_template<0>::_S_oom_realloc(void *, unsigned long)
                0x200c4a7c                muxAddrResFuncAdd
                0x200c50e8                muxPollEnd
                0x20044adc                CLinkNode::GetBoardType(void) const
                0x20079084                WndFind
                0x20109fbc                moduleDelete
                0x2007a278                SPCInitTest
                0x200cf504                tftpModeSet
                0x20021310                flwAmdSize
                0x200bb2a8                splimp
                0x200dec18                sosetopt
                0x200027f8                AT91F_PIO_GetOutputWriteStatus
                0x20098118                workQAdd1
                0x200d77d4                tcp_mss
                0x200bb6fc                arpFlush
                0x2010b96c                spyClkStartCommon
                0x200be6d0                bsdRecvmsg
                0x20050130                VOS_DelayTask
                0x200b4d88                routeDrain
                0x20032628                CCfgTcpSocket::taskAccept(void *)
                0x20112c04                qRemove
                0x2012bbdc                wdTerminate
                0x20071d14                SPCWndAdjust
                0x2006d828                Sp12SetC751InputChannelCompensation
                0x200f469c                mbstowcs
                0x2007c2cc                SPCReadC751Image
                0x200fea60                memShowInit
                0x200b86d0                udp_output
                0x200f7d74                putenv
                0x20002c38                AT91F_US_RxReady
                0x20029830                CS_CrossTemperature
                0x200c2240                ifFlagGet
                0x200be638                bsdBind
                0x200037ec                AT91F_PMC_CfgPMC
                0x2000bcf4                usrTelnetdStart
                0x200a6fe0                __umoddi3
                0x200c917c                netLsByName
                0x2000df38                wdbCommDevInit
                0x200fbab0                lseek
                0x200923c8                bad_cast type_info function
                0x200c3f28                muxSend
                0x200ff4e4                pathCat
                0x20076d20                SPCSetProcessFunc
                0x200a1790                _f_utof
                0x200f80b0                excJobAdd
                0x20100ee0                sigaddset
                0x200959c8                excVecInit
                0x201043b4                taskVarInfo
                0x2000c8c0                wdbToolName
                0x200f7328                classMemPartIdSet
                0x20003140                AT91F_UDP_EnableEp
                0x2005ae2c                CVPNode::GetResolution(void) const
                0x2004b7ec                CModuleManager::Instance(void)
                0x2000f0f0                BSP_UrgencySend
                0x2005ae94                CVPNode::SetResolution(unsigned char)
                0x20067f70                OvlySetDesktop
                0x2000318c                AT91F_UDP_SetState
                0x20017168                BSP_AT91F_PIO_InputFilterEnable
                0x200e0ba0                cbioBlkRW
                0x2002881c                delayNSec
                0x200b9fa4                sbseldequeue
                0x200420e4                CPackage::AddRecvCounter(CPackageCounter &) const
                0x20061638                C751SetOutputPortOAOI1VerticalEnd
                0x20049b40                CPackageCounter::GetSendOKTimes(void) const
                0x200f3bd4                stdioShow
                0x20084a40                set_cplus_marker_for_demangling
                0x200846bc                cplusDemanglerSet
                0x20123f00                xdr_WDB_AGENT_INFO
                0x20002bb0                AT91F_US_DisableTx
                0x20061368                C751SetOutputPortOAOI0HorizontalEnd
                0x200a4a9c                __clear_cache
                0x2012e53c                r0
                0x200a1b04                cacheArm920tDClearAll
                0x2011ce7c                tffsDevOptionsSet
                0x2004a334                operator>>(CPackage const &, S_MESSAGE &)
                0x200335c4                taskCfgSocket
                0x2007488c                ProcessShowConfigInfo
                0x2003ea20                CDataPackage::GetType(unsigned char &) const
                0x200a1dbc                mmuArm920tTLBIDFlushAll
                0x200c694c                netDevCreate2
                0x200fcb64                iosDevDelete
                0x200726dc                SPCTestLogo
                0x200d3a64                in_pcblookup
                0x2000155c                AT91F_PDC_SetTx
                0x200e2658                dcacheDevDisable
                0x20112e6c                qPriBMapInfo
                0x20003a94                AT91F_ST_CfgPMC
                0x201124dc                dllCreate
                0x20110e58                bzero
                0x2000b03c                usrFtpInit
                0x200937f4                int type_info function
                0x2005bbfc                DeserGetVersion
                0x20009b28                sysModel
                0x2011efcc                wdbRpcRcv
                0x2002d614                MC_AlarmReport
                0x200b33fc                rn_newpair
                0x200922b0                bad_typeid virtual table
                0x200a6274                __udivdi3
                0x2011e4e0                wdbVioDrv
                0x200070d8                at91EthRbdCheck
                0x200d1ad4                netMblkDup
                0x200cd9bc                send
                0x20075518                ProcessGetColorkey
                0x200819a0                JpegDecode
                0x2005ebbc                FPGAovlySetImage3HorizontalEnd
                0x2012b724                tick64Get
                0x20105c78                dbgInit
                0x200f3620                setbuffer
                0x200509a0                VOS_GetBoardID
                0x2010aa30                moduleFlagsGet
                0x2012774c                semInvalid
                0x2009ee0c                _ddiv
                0x200b9558                mbinit
                0x200f4440                abort
                0x2006bf80                Si5326SetReg
                0x200fedbc                memShow
                0x200438a0                CSocketNode::ResetErrorTimes(void)
                0x20035aec                W2BY
                0x20112fe4                qPriListDelete
                0x20091558                __rtti_si
                0x20110f6c                bootStructToString
                0x2004f0b8                testMEntry
                0x2012c550                windDelay
                0x200428a8                CProtocol::IsBoardOnline(unsigned char)
                0x2012cd4c                windPendQPut
                0x20125ebc                msgQReceive
                0x20003748                AT91F_TC3_CfgPMC
                0x20041e78                CPackage::GetPackageLength(unsigned short &) const
                0x2006275c                C751LoadVerticalZoomLookupTable
                0x201135d0                sllCount
                0x200f3b3c                __stderr
                0x2012a770                taskCreat
                0x2012888c                taskOptionsSet
                0x200db83c                tcp_respond
                0x20029f60                CfgMgr::ProcProtocalVer2(BD_CMD_S *, unsigned long)
                0x200859f8                cplus_demangle
                0x200fc314                iosFdValue
                0x20044a08                CLinkNode::~CLinkNode(void)
                0x20092134                __class_type_info::do_find_public_subobj(int, type_info const &, void *, void *) const
                0x200f5ecc                gmtime_r
                0x2000c818                usrTffsLnConfig
                0x200a1aa0                cacheArm920tDFlushAll
                0x20112220                bootLeaseExtract
                0x20001710                AT91F_PDC_Close
                0x20002334                AT91F_PIO_CfgDirectDrive
                0x20113548                sllTerminate
                0x2004282c                CProtocol::SendPackage(CPackage &)
                0x200974f4                semBGive
                0x200bcb18                ipDetach
                0x20109b18                loadCommonManage
                0x201246ac                eventLibInit
                0x200df198                uiomove
                0x20091244                bad_alloc::~bad_alloc(void)
                0x2007a9b0                SPCFpgaSetReg
                0x200f1628                isxdigit
                0x200fd010                logFdAdd
                0x20101e40                sigPendDestroy
                0x20125044                eventStart
                0x20018e5c                CloseBus
                0x20102c40                symTblTerminate
                0x2000cb18                wdbTgtHasDspSet
                0x2005d0a4                FPGAdesSetImage2VerticalEnd
                0x200415b4                COnLinePackage::COnLinePackage(void)
                0x200c67c0                muxTkUnloadUpdate
                0x20132028                xdr_char
                0x2005c944                FPGAdesReset
                0x2003e70c                CDataPackage::~CDataPackage(void)
                0x200fe018                memPartCreate
                0x200cb7b0                arptabShow
                0x2010ace4                shellInit
                0x2012e3dc                _dbgTaskPCGet
                0x2011f7e0                wdbConnectLibInit
                0x200a2e80                __DIAB_wr_sw_db
                0x20091370                operator new [](unsigned long, void *)
                0x20049ac8                CPackageCounter::AddSendDataPackages(void)
                0x2009052c                __check_eh_spec
                0x2004434c                CAppInterface::GetMessageNumber(unsigned short)
                0x20064bec                C751SetRTGnTransferMode
                0x2011cc94                flNeedVcc
                0x20081b08                JpegGetMemory
                0x20051544                CTimerIDPool::CTimerIDPool(void)
                0x200a3ad8                __add64
                0x200aca18                ether_attach
                0x200f7690                clock_show
                0x2010358c                symFindByValue
                0x2004e444                CSystemMessage::WriteMessage(unsigned char *)
                0x200a7660                ifreset2
                0x2004c4a4                CModuleManager::Reboot(unsigned char)
                0x2011d4ac                flPollTask
                0x2005e7b8                FPGAovlySetImage1VerticalStart
                0x200f4c98                __exp10
                0x200f5010                strtol
                0x201242e4                xdr_TGT_INT_T
                0x20131d60                qJobInfo
                0x2011e848                wdbInstallCommIf
                0x200dd128                tcp_usrclosed
                0x200f2790                fsetpos
                0x20072458                SPCTestTessellation
                0x20097dcc                windExit
                0x20050b40                CPeriodicTimer::CPeriodicTimer(unsigned long, long, unsigned long, unsigned long)
                0x200a3b18                __ge64
                0x200d3fdc                in_pcbbind
                0x20127080                semCGiveDefer
                0x200b694c                rtalloc2
                0x200a3e68                __diab_trylock_semaphore
                0x2003f7cc                CEthnClient::IsBoardOnline(unsigned char)
                0x2003de10                CCtrlPackage::GetVersion(unsigned char &) const
                0x20078e24                WndDelete
                0x200e0920                cbioRdyChgdSet
                0x20016598                GetRtc
                0x200ab538                ether_output
                0x201325a4                xdr_double
                0x2005b5fc                PF_EndPreview
                0x20130d50                taskArgsSet
                0x200bb440                _netFree
                0x2010718c                dbgTaskBpHooksInstall
                0x20002c5c                AT91F_US_Error
                0x200f460c                mblen
                0x200fe938                memPartAlloc
                0x20062904                C751SetInputSyncControl
                0x2011ebdc                wdbIsNowTasking
                0x2010cf58                repeatRun
                0x201274f8                semDelete
                0x20105000                tyIRd
                0x2005cffc                FPGAdesSetImage2HorizontalStart
                0x200098b0                sysSecEnetAddrSet
                0x200bb37c                wakeup
                0x200fd0f0                logFdSet
                0x2000243c                AT91F_PIO_Disable
                0x2008fedc                __get_eh_context
                0x20009f7c                usrAppInit
                0x2003dad0                CCtrlPackage::CCtrlPackage(unsigned char, unsigned char, unsigned short, unsigned char *)
                0x201306a4                ffsMsb
                0x200bb664                arpDelete
                0x200163c4                dispLM73reg
                0x2000c864                usrWdbBanner
                0x200cd788                accept
                0x20010964                BSP_SetCurSysDateTime
                0x20049bb8                CPackageCounter::SetSendTimes(unsigned long)
                0x200c4d2c                muxDevStartAll
                0x20052008                CTimerManager::CTimerManager(void)
                0x200831ac                BitmapDecode24Bits
                0x2011351c                sllCreate
                0x201246bc                eventInit
                0x2004e10c                CStartupSystemMessage::GetMessageID(void) const
                0x2009ddc8                __kernel_rem_pio2
                0x20035b30                BY2W
                0x20114a58                ledOpen
                0x2010372c                symName
                0x200fcd44                iosDrvRemove
                0x2006367c                C751LoadHorizontalShrinkLookupTable
                0x2010e828                printLogo
                0x200505b0                VOS_SendMsg
                0x200925a8                __user_type_info type_info function
                0x20033030                CDebugTcpSocket::taskAccept(void *)
                0x2009f5ec                _ll_sfrom_d_r
                0x2000b85c                usrNetLoopbackStart
                0x2009f0a8                ddiv_mantissas
                0x200a7750                ifresetImmediate
                0x20084358                cplusLibMinInit
                0x2012c8e0                windWdCancel
                0x20044bd4                CLinkNode::GetErrorTimes(void) const
                0x20053cd0                PF_RegisterModule
                0x2004b034                CModule::GetMessageSet(void) const
                0x200939d4                bool type_info function
                0x200a3ff8                endMibIfInit
                0x200018c4                AT91F_DBGU_IsInterruptMasked
                0x2000b7f8                usrNetLibInit
                0x20035d00                CSoftUpGrade::CSoftUpGrade(void)
                0x2006ad6c                ScalGetChannelParameter
                0x20100360                selTaskDeleteHookAdd
                0x2004cef0                CModuleManager::GetAllModules(void)
                0x2003b1a0                CProcAlarm::CProcAlarm(void)
                0x20112e64                qPriBMapKey
                0x20033370                CfgRspCmdToNs(VWAS_CMD_S *, unsigned long, unsigned long)
                0x200a7598                __unpack_f
                0x20002e18                AT91F_MCI_Cfg_ModeRegister
                0x2012d9b0                eventRsrcShow
                0x200071b8                at91EthTbdFree
                0x2005e114                FPGAovlyGetControl
                0x200f1944                __sflush
                0x200fbfb8                rename
                0x20035f2c                CSoftUpGrade::~CSoftUpGrade(void)
                0x2006aac8                ScalShowWnd
                0x2007d1bc                JpegGetKBits
                0x200a030c                _fleq
                0x200171b8                BSP_AT91F_PIO_GetInputFilterStatus
                0x2000194c                AT91F_RTC_IsInterruptMasked
                0x20128b00                taskIdListGet
                0x200dc39c                tcp_rtlookup
                0x200cce24                routeAdd
                0x20112d48                qPriBMapInit
                0x2005f270                FPGAovlySetImage0ACTVerticalStart
                0x2000fd14                BSP_GetAllFPGAStatus
                0x20122f50                wdbDbgBpListInit
                0x2006d528                Sp12GetVerticalStart
                0x200f7c44                envPrivateDestroy
                0x2009003c                __sjthrow
                0x2005d688                FPGAovlySetBackgroundControl
                0x20102c48                symTblDelete
                0x200baeb0                soreserve
                0x20030804                CTcpSocket::StartAccept(void)
                0x20132324                xdr_union
                0x2009f980                _dcmple
                0x2010a580                moduleEach
                0x20007a7c                at91EthURbdProcess
                0x200f58bc                strrchr
                0x2004364c                CSocketNode::~CSocketNode(void)
                0x200bff2c                ftpLibDebugOptionsSet
                0x20120160                wdbMemLibInit
                0x200759c0                ProcessGetDesktop
                0x200c68ec                netDrv
                0x200d16f8                netClBlkFree
                0x201134ec                rngMoveAhead
                0x200071f0                at91EthTbdStart
                0x2009f410                _dfix
                0x200e89b4                fat16VolMount
                0x20041e50                CPackage::GetHeadPointer(void) const
                0x200501a0                VOS_SuspendTask
                0x200abe28                ether_addmulti
                0x200c27d0                ifunit
                0x2000fc8c                BSP_GetBoardslotNo
                0x20130d70                taskRtnValueSet
                0x20042e4c                CProtocol::OnlineNotify(unsigned char, unsigned char)
                0x2013213c                xdr_enum
                0x2003ce9c                C485Client::tReceiver(void *)
                0x2006db60                Sp12GetC751InputChannelVerticalCompensation
                0x2000b088                usrNetBoot
                0x2004212c                CPackage::ReceiveAction(CProtocol *)
                0x200924ac                bad_typeid type_info function
                0x2012b854                wdCreate
                0x20092280                __user_type_info virtual table
                0x200fdbc8                calloc
                0x2009f410                __fixdfsi
                0x2002a3cc                CfgMgr::GetNetStatus(BD_CMD_S *, unsigned long)
                0x200bdd0c                bsdRecv
                0x20042258                CPackage type_info function
                0x20068a2c                OvlySetTestRed
                0x200648b8                C751GetChannel2InputVerticalSyncPulseWidth
                0x20043874                CSocketNode::AddErrorTimes(void)
                0x20050788                VOS_GetMsgNum
                0x2012b768                wdLibInit
                0x2002f9b0                global destructors keyed to MC_AlarmReport
                0x2007d378                JpegLoadQuantTable
                0x20132098                xdr_bool
                0x200bae94                sbrelease
                0x200a1afc                cacheArm920tIInvalidate
                0x20041f34                CPackage::GetVersion(unsigned char &) const
                0x2004ad64                SetDebugSwitch
                0x200516bc                CTimerIDPool::~CTimerIDPool(void)
                0x200bb160                sbdroprecord
                0x20100d80                sigInit
                0x200a3b04                __ne64
                0x2007d414                JpegInitHT
                0x20016a90                BSP_RTCTEST
                0x20110ed4                bootParamsErrorPrint
                0x20129f20                taskDelay
                0x20104804                tyEOFSet
                0x2005e664                FPGAovlySetImage0HorizontalEnd
                0x20072a40                SPCTimerProcess
                0x20014ea8                I2cRead
                0x200194fc                BSP_LoadFpga_LATTICE
                0x200a17fc                __floatdisf
                0x200c2c78                inet_lnaof
                0x2011ccec                flDontNeedVcc
                0x20043718                CSocketNode::GetSocketValid(void) const
                0x200e8910                fat16ClustValueGet
                0x200928d4                __class_type_info type_info function
                0x201289f8                taskName
                0x200f4dc8                strtod
                0x20014ac8                I2cWriteBit
                0x200a31e0                __div32
                0x200a0700                _ll_sfrom_f_r
                0x20069ab8                ScalPowerOn
                0x20001910                AT91F_RTC_InterruptDisable
                0x20068f54                OvlySetTestColorSlice
                0x201131d0                qPriListEach
                0x201324d8                xdr_wrapstring
                0x200a83e4                ifconf
                0x200fcb8c                iosDevAdd
                0x200174d8                BSP_AT91F_PIO_OutputWriteDisable
                0x200da7b8                tcp_output
                0x20110e94                rindex
                0x20001c3c                AT91F_SPI_Open
                0x2008f9e0                __default_alloc_template<true, 0>::_Lock::_Lock(void)
                0x2000380c                AT91F_PMC_CfgPIO
                0x200c2d48                inet_makeaddr
                0x20001b54                AT91F_SSC_ReceiveFrame
                0x20103d80                taskCreateHookAdd
                0x200a3e40                __diab_trylock_mutex
                0x20016fd0                BSP_AT91F_PIO_ForceOutput
                0x2009ed70                _d_fne
                0x20002b30                AT91F_US_EnableTx
                0x20100a10                selWakeupListTerm
                0x200c5640                muxTkReceive
                0x200fb8c0                hashKeyCmp
                0x2003e068                CCtrlPackage::PostSend(void)
                0x2003e90c                CDataPackage::GetPrivilege(unsigned char &) const
                0x2000186c                AT91F_DBGU_InterruptEnable
                0x20013adc                BSP_GetMiniSystemStatus
                0x200a02d0                _fneq
                0x2011358c                sllPrevious
                0x20090a54                __throw_bad_cast
                0x200fba3c                write
                0x200a7df4                if_up
                0x2004a994                PF_SendMessage
                0x20104220                taskVarAdd
                0x20013f74                BSP_EnableHardDog
                0x2005f2e4                FPGAovlySetImage0ACTHorizontalEnd
                0x200e0678                cbioRdyChk
                0x2012e3a8                _dbgTaskPCSet
                0x200a2054                _d_cmp
                0x200c2d78                inet_netof
                0x20002818                AT91F_PIO_IsOutputWriteSet
                0x200499f4                CPackageCounter::SetRcvNormalPackages(unsigned long)
                0x2008fe8c                __empty
                0x20095b60                excExcHandle
                0x201127c0                lstNStep
                0x20002a30                AT91F_US_SetBaudrate
                0x20110608                diskInit
                0x20110c18                ramDiskDevCreate
                0x2011d504                flInstallTimer
                0x200f4474                atof
                0x20012730                BSP_NandFlashFileRead
                0x200910d4                exception::~exception(void)
                0x200a0334                __gtsf2
                0x20062868                C751SetInputFormatControl
                0x200a616c                __udiv_w_sdiv
                0x20035c38                W2DW
                0x200d1e40                netTupleGet2
                0x20032ff8                CDebugTcpSocket::taskRecv(void *, unsigned long)
                0x200a7bb4                ifa_ifwithroute
                0x2000adb4                usrBsdSockLibInit
                0x200170b8                BSP_AT91F_PIO_OutputEnable
                0x20131e48                xdr_free
                0x200fb548                hashTblDestroy
                0x200dbff0                tcp_notify
                0x20063cd8                C751SetField3MemoryReadStartAddress
                0x2004181c                COnLinePackage::COnLinePackage(unsigned char *)
                0x2013230c                xdr_netobj
                0x200a2d00                sfpFloatSetup
                0x200f77c8                fstat
                0x200f1eb0                fprintf
                0x2012e244                _dbgArchInit
                0x20075bc0                ProcessTest
                0x200a1ea4                __diab_intrinsics_impfpInit
                0x200de100                soconnect
                0x2011e860                wdbInfoGet
                0x200030fc                AT91F_UDP_DisableIt
                0x200a57bc                __lshrdi3
                0x20097694                semTake
                0x20017108                BSP_AT91F_PIO_GetOutputStatus
                0x20068794                OvlySetTestWhite
                0x200365dc                CSoftUpGrade::ReceiveNsMsg(void)
                0x200a3f98                endMultiLstFirst
                0x2012da88                msgQEvStart
                0x20002190                AT91F_PMC_GetMasterClock
                0x20045504                CMailBoxMap::GetMsgQID(unsigned short, msg_q *&) const
                0x20097404                mmuHardCrGet
                0x200b5d2c                rtrequest
                0x200a8128                ifinit
                0x200a3f54                endFlagsSet
                0x201023b0                kill
                0x2005fa08                FPGAovlySetDesktopAdjustmentHorizontalEnd
                0x20052fbc                CTimerManager::SetTimer(CTimer *)
                0x2011ca00                flSocketOf
                0x200f5c70                ctime
                0x2006060c                C751SetScalingWidthControl
                0x2009edd4                __ledf2
                0x200924e8                bad_typeid::bad_typeid(void)
                0x2005ccb4                FPGAdesSetTest2
                0x2000e4d4                usrToolsInit
                0x20081488                JpegDecodeImage
                0x2006f550                SPCSetBackground
                0x200c4eb0                muxTaskDelaySet
                0x200037a8                AT91F_TC0_CfgPMC
                0x200c5fa4                muxTkBind
                0x20131e78                xdr_long
                0x200e7320                dosDirOldLibInit
                0x20119c28                flInit
                0x200f5448                strcat
                0x201033f0                symFindByCName
                0x2000a0d8                tffsShow
                0x20009c7c                sysMemTop
                0x2002fca4                CheckDateTimeIsCorrect(SYS_T &)
                0x2006816c                OvlyGetDesktop
                0x20111e1c                bootParamsPrompt
                0x200d36cc                in_setpeeraddr
                0x200ff840                pipeDevDelete
                0x200cd6b0                bind
                0x2011d228                tffsDevFormat
                0x2005cdcc                FPGAdesImage3SelectSerdes
                0x20010b74                BSP_GetBootromStatus
                0x20050b00                VOS_SetIOControl
                0x2004980c                CPackageCounter::AddReceiveTimes(void)
                0x200fd884                memPartRealloc
                0x2000bfc0                usrBreakpointSet
                0x200a74d8                __umodsi3
                0x20018e2c                OpenBus
                0x20028c48                SpiReadByte
                0x20131194                trcStack
                0x200406d0                CEthnClient::SetSocketOption(long)
                0x20081bb4                JpegTest
                0x201013f4                sigvec
                0x200015b4                AT91F_PDC_DisableTx
                0x2007cf28                JpegGetSValue
                0x201124f8                dllDelete
                0x200c2aa0                inet_addr
                0x20036018                CSoftUpGrade::GetInstance(void)
                0x200b56d0                rtalloc1
                0x200859ac                cplus_demangle_name_to_style
                0x20084250                FPGAisrInit
                0x201125fc                lstCount
                0x20016ff8                BSP_AT91F_PIO_Enable
                0x200fbb98                readv
                0x200de2a8                sorflush
                0x200f9118                vprintf
                0x20124068                xdr_WDB_REPLY_WRAPPER
                0x200d0348                tftpCopy
                0x2006cbd4                Sp12GetOvlySubChannel
                0x200a3f80                endMultiLstCnt
                0x20067f14                OvlyGetColorkey
                0x2004db64                CRebootSystemMessage::GetSubMessageID(void) const
                0x20094fdc                bcopyLongs
                0x20035ab8                global destructors keyed to g_dwSockPrint
                0x2005ccec                FPGAdesGetTest2
                0x201203a4                wdbRegsLibInit
                0x2010323c                symRemove
                0x2010e978                spyClkStart
                0x200ba08c                sb_lock
                0x2008fcf8                cplusNewHandlerExists(void)
                0x20032948                CSoftTcpSocket::taskRecv(void *, unsigned long)
                0x200c28ec                ifNameToIfIndex
                0x20091748                __user_type_info::upcast(type_info const &, void *, void **) const
                0x2004999c                CPackageCounter::SetReceiveTimes(unsigned long)
                0x201127b8                lstPrevious
                0x2002b1d0                CfgMgr::GetManInfo(BD_CMD_S *, unsigned long)
                0x200427c0                CProtocol::~CProtocol(void)
                0x2010ec60                dosFsModeChange
                0x20112ff4                qPriListTerminate
                0x200a2f84                __mul64
                0x20100274                reboot
                0x200075e4                at91EthPollReceive
                0x200659b0                OvlySetConfig
                0x20003504                AT91F_DBGU_CfgPIO
                0x200a1490                _fadd
                0x20028be0                SpiReadBit
                0x200fc0a4                chdir
                0x2006331c                C751SetVerticalReductionControl
                0x20101e20                sigwaitinfo
                0x200902c8                terminate(void)
                0x200c65d4                muxTkDevLoadUpdate
                0x200ad844                in_ifinit
                0x200a4624                endEtherPacketAddrGet
                0x200927d0                __si_type_info::__si_type_info(char const *, __user_type_info const &)
                0x2003eadc                CDataPackage::ReceiveAction(CProtocol *)
                0x200a601c                __pack_f
                0x20003fb0                sysAuxClkEnable
                0x20003548                AT91F_UHP_CfgPMC
                0x2012d8cc                workQPanic
                0x2010c460                timexInit
                0x200030e0                AT91F_UDP_EnableIt
                0x2003dfe4                CCtrlPackage::AddRecvCounter(CPackageCounter &) const
                0x200d1fd0                ifIndexTest
                0x20125364                msgQLibInit
                0x200d38f8                in_losing
                0x2005f030                FPGAovlySetHorizontalTotal
                0x2006aca0                ScalGetChannelStatus
                0x200024c4                AT91F_PIO_OutputDisable
                0x2009b1a4                modf
                0x20028b14                PinADo
                0x20001490                sysSerialReset
                0x2004eae0                tTest
                0x20045be0                operator<(tagMailBoxNode const &, tagMailBoxNode const &)
                0x200af2d8                ip_stripoptions
                0x2005c978                FPGAdesSoftReset
                0x20106624                cret
                0x20017428                BSP_AT91F_PIO_B_RegisterSelection
                0x20104bf0                tyDevInit
                0x2002ce24                CfgMgr::GetMsgPara(unsigned char *, BD_CMD_S &)
                0x200cdc44                setsockopt
                0x200dc254                tcp_ctlinput
                0x201027d4                sigPendKill
                0x2000e3b8                usrNetAppInit
                0x2003fd00                CEthnClient::tSender(void *)
                0x20131f10                xdr_short
                0x200a78d4                ifa_ifwithdstaddr
                0x20001c80                AT91F_SPI_EnableIt
                0x200d1240                netBufLibInit
                0x200f23ec                fseek
                0x200923b0                type_info::name(void) const
                0x200d16c0                netMblkFree
                0x20063190                C751SetHorizontalShrinkInitialValue
                0x2010a508                moduleFindByGroup
                0x20001598                AT91F_PDC_EnableRx
                0x2006d0b4                Sp12GetHorizontalTatal
                0x2010ec64                dosFsReadyChange
                0x2011d6b8                tffscmpWords
                0x200023e8                AT91F_PIO_ClearOutput
                0x20002ca4                AT91F_US_GetChar
                0x20100ddc                sigqueueInit
                0x2003e03c                CCtrlPackage::ReceiveAction(CProtocol *)
                0x20002930                AT91F_TWI_GetInterruptMaskStatus
                0x2010d5c8                i
                0x20073b58                ProcessResizeWnd
                0x2009236c                type_info type_info function
                0x200fce50                iosDrvInstall
                0x20019b18                UrgencyJobAlloc
                0x20049748                global destructors keyed to CMailBoxMap::m_spInstance
                0x2006c288                Sp12GetDeserAddress
                0x20092ed8                __throw_type_match_rtti
                0x200a3ddc                __diab_atomic_enter
                0x20124314                xdr_ARRAY
                0x200b46bc                rn_walktree
                0x200d1f78                ifIndexAlloc
                0x20107b58                elfRelocRelaEntryRd
                0x20061548                C751SetOutputPortOAOI1HorizontalEnd
                0x2004b188                CModule::GetStatus(void) const
                0x200a30d4                __lsr64
                0x2010481c                tyITx
                0x201106c4                ioHelp
                0x200438c8                CSocketNode::GetErrorTimes(void) const
                0x20094d20                bcopyBytes
                0x200c4b04                muxAddrResFuncGet
                0x200c23a8                ifDstAddrGet
                0x2002a570                CfgMgr::SetIP(BD_CMD_S *, unsigned long)
                0x2005c920                FPGAdesGetBasicAddress
                0x201263f8                msgQInfoGet
                0x20043ba4                CAppInterface::Instance(void)
                0x20096260                intExit
                0x20130d10                taskRegsInit
                0x200e021c                setstate
                0x2011eef4                wdbSystemSuspend
                0x200a1798                _fflt
                0x200a1880                _fmul
                0x200cd22c                mRouteDelete
                0x200902fc                set_unexpected(void (*)(void))
                0x20050acc                VOS_CloseSocket
                0x200acccc                in_netof
                0x2004e828                sendpackage
                0x200fef94                objShow
                0x2009cb88                fmod
                0x20113084                qPriListGet
                0x2004de1c                CStandbySystemMessage::GetMessageID(void) const
                0x200fd520                memPartOptionsSet
                0x2010bba0                spyCommon
                0x2005d184                FPGAdesSetImage3VerticalEnd
                0x2009932c                cos
                0x20113248                rngCreate
                0x20103bf0                taskSwapHookAdd
                0x20103794                symValueGet
                0x200a2f2c                __DIAB_wr_sw_ld
                0x2005d14c                FPGAdesSetImage3VerticalStart
                0x20094e7c                bcopyWords
                0x200fc628                iosClose
                0x20112854                lstFree
                0x20042084                CPackage::GetType(unsigned char &) const
                0x20095944                dllAdd
                0x200ff638                pathLastNamePtr
                0x2000c70c                usrTffsConfig
                0x2011fb78                wdbCtxResume
                0x200017e8                AT91F_PDC_ReceiveFrame
                0x2011cb74                flSetWindowSpeed
                0x20035a90                global constructors keyed to g_dwSockPrint
                0x2010c8c4                timexPost
                0x2000363c                AT91F_SSC1_CfgPMC
                0x20099aac                tanh
                0x2002b660                CfgMgr::SetTempTh(BD_CMD_S *, unsigned long)
                0x200f5340                memchr
                0x2008eb1c                decode_identifier_styled
                0x200a794c                ifa_ifwithnet
                0x20002754                AT91F_PIO_B_RegisterSelection
                0x200cc5b0                remCurIdSet
                0x20059268                COfflineSystemMessage::~COfflineSystemMessage(void)
                0x20092954                __class_type_info::__class_type_info(char const *, __class_type_info::base_info const *, unsigned long)
                0x20002f38                AT91F_AIC_AcknowledgeIt
                0x2000e5a4                usrDosFsInit
                0x2000ed08                UrgencyStart
                0x200acbec                netTypeDelete
                0x2008e970                decode_identifier
                0x20001774                AT91F_PDC_SendFrame
                0x20002478                AT91F_PIO_IsSet
                0x200e0aa0                cbioIoctl
                0x2010db74                ld
                0x2010e798                tr
                0x20124154                xdr_UINT32
                0x20128adc                taskIsSuspended
                0x2010ec68                dosFsVolOptionsGet
                0x20102d38                symFree
                0x200a4a54                __ashrdi3
                0x2005e6d4                FPGAovlySetImage0VerticalEnd
                0x200f3ae4                __stdin
                0x20040ec0                CKeepAlivePackage::CKeepAlivePackage(unsigned char *)
                0x200cafe0                netStackSysPoolShow
                0x20001150                sysBusIntGen
                0x2003006c                CheckFpgaSupport(unsigned long)
                0x200ff034                objAllocExtra
                0x2005d114                FPGAdesSetImage3HorizontalEnd
                0x20092efc                __is_pointer(void *)
                0x200a7c6c                ifafree
                0x20102c50                symInit
                0x2010f978                ll
                0x20110020                xdelete
                0x2005f118                FPGAovlySetHorizontalSync
                0x2004a954                PF_FreeMessage
                0x2010e92c                spy
                0x20001198                sysMailboxEnable
                0x2012e58c                r10
                0x20006f20                at91EthStart
                0x2005ce74                FPGAdesSetImage0HorizontalEnd
                0x2004e3d8                CSystemMessage::~CSystemMessage(void)
                0x200c11b8                hostGetByName
                0x20112330                bufPoolInit
                0x200156b4                I2cWritePage
                0x200981cc                workQDoWork
                0x200614d0                C751SetOutputPortOAOI1HorizontalStart
                0x2004f408                Ping
                0x200502f4                VOS_GetPriority
                0x200f3950                stdioFpCreate
                0x20113508                sllInit
                0x200fd508                memInit
                0x2005f920                FPGAovlySetDesktopAdjustmentHorizontalStart
                0x200c2228                ifMetricGet
                0x2000a518                flDelayLoop
                0x2004aaa8                PF_GetLocalBoardType
                0x20061980                C751SetOutputPortOAOI3VerticalStart
                0x20002568                AT91F_PIO_GetInputFilterStatus
                0x2009edc0                _d_flt
                0x2012d944                eventTaskShow
                0x20001f04                AT91F_TC_InterruptEnable
                0x2003fa74                CEthnClient::ReceivePackage(void)
                0x2011d12c                tffsDevCreate
                0x2009823c                mathSoftInit
                0x20011604                LedDrvInit
                0x200c5a84                muxTkPollSend
                0x20020388                sysFlashErase16
                0x200646c8                C751GetChannel1InputHorizontalSyncPulseWidth
                0x200a3fc4                endDevName
                0x20079dec                SPCWndList
                0x200015ec                AT91F_PDC_IsTxEmpty
                0x20001ac8                AT91F_SSC_DisableRx
                0x20050968                VOS_InitVOS
                0x2010aeb0                shellLock
                0x200f615c                mktime
                0x200f5d04                __julday
                0x200f915c                printExc
                0x200a81f4                ifpromisc
                0x200d28ec                igmp_slowtimo
                0x2004e3b0                CSystemMessage::CSystemMessage(void)
                0x2005ea64                FPGAovlySetImage2VerticalEnd
                0x2005e4a0                FPGAovlyDisableOutput
                0x20002d78                AT91F_MCI_Configure
                0x2010722c                dbgTaskStep
                0x200b8fd4                addDomain
                0x201071c4                dbgTaskCont
                0x20014770                sysNvRamGet
                0x200a3fb0                endMultiLstNext
                0x200a0018                __dunder_d
                0x200f18d8                ferror
                0x200f5918                strstr
                0x2003d580                C485Client type_info function
                0x200a2004                __DIAB_rd_sw_ld
                0x20029858                CfgMgr::CfgMgr(void)
                0x20062cb8                C751SetInputPortACTVerticalStart
                0x200846e0                cplusDemangle
                0x200a10f0                __dflt_normalise
                0x20109cac                moduleLibInit
                0x2005c9b0                FPGAdesGetUserVersion
                0x2000c0cc                usrCacheEnable
                0x200a6120                __ucmpdi2
                0x200e0594                cbioLibInit
                0x2011cda4                flIntervalRoutine
                0x200dbfec                tcp_drain
                0x20130650                elfArmInit
                0x2003e79c                CDataPackage::GetSourceBD(unsigned char &) const
                0x200624c4                C751SetVerticalEnlargementInitialValue
                0x200b99d8                m_pullup
                0x2003eb70                CDataPackage::PostSend(void)
                0x20099448                sin
                0x200bc16c                ipTkError
                0x2005d2e8                FPGAdesSetImageType
                0x20039058                CSoftUpGrade::IsTimeOut(void)
                0x2011d644                fromUNAL
                0x200ea5ac                dosFsVolIsFat12
                0x200f4bf8                rand
                0x2010c858                timexClear
                0x201135f0                sllEach
                0x201242fc                xdr_TGT_ADDR_T
                0x20014028                BSP_DisableHardDog
                0x20041068                CKeepAlivePackage::ReceiveAction(CProtocol *)
                0x200ccc94                routeEntryFill
                0x200c2258                ifFlagChange
                0x200a1ef0                __DIAB_rd_pk_fl
                0x200ddc58                solisten
                0x20002de0                AT91F_MCI_Enable_Interface
                0x2012b6c8                tickSet
                0x2009eb98                _d2f
                0x200d6978                rip_ctloutput
                0x20061f50                C751SetOutputPortACTVerticalWidth
                0x20005594                crc32_le
                0x20044a80                CLinkNode::GetBoardID(void) const
                0x200026e8                AT91F_PIO_GetMultiDriverStatus
                0x20041ff4                CPackage::GetPrivilege(unsigned char &) const
                0x20110528                diskFormat
                0x20098fd0                atan2
                0x20092404                bad_cast::bad_cast(void)
                0x20101454                signal
                0x200175c0                BSP_AT91F_PIO_IsCfgPullupStatusSet
                0x200dc404                tcp_updatemtu
                0x200fb9cc                read
                0x20128ab0                taskIsReady
                0x200c4904                muxTxRestart
                0x2006056c                C751SetFieldDelay2
                0x2010aea4                shellOrigStdSet
                0x200a1798                __floatsisf
                0x2003bd14                CProcAlarm::ProcBdTempAlarm(void)
                0x20017528                BSP_AT91F_PIO_IsOutputWriteSet
                0x2006b6d0                ScalReadBackground
                0x2002d494                taskMainCtrlAll
                0x200dc388                tcp_quench
                0x2009eb98                _d_dtof
                0x20053d90                PF_LoadModule
                0x200bf604                ftpCommandEnhanced
                0x200fc264                ioTaskStdGet
                0x2010a02c                moduleSegNext
                0x2000b76c                usrIpLibInit
                0x2005d5e0                FPGAovlyGetTest2
                0x2007e340                JpegConvert8x8YCbCrToRGB
                0x200115cc                BSP_GetCurSecondTest
                0x200129c8                BSP_NandFlashFileWrite
                0x2006026c                C751GetCh2MainControl
                0x2004f89c                timerdebug
                0x2000e534                usrKernelExtraInit
                0x201121b0                bootNetmaskExtract
                0x20052d70                CTimerManager::KillTimer(unsigned long)
                0x201009ec                selWakeupListInit
                0x2000482c                at91SioInt
                0x200ee29c                dosFsShow
                0x2010fc20                mv
                0x200d1a80                netMblkToBufCopy
                0x2011f0e8                wdbRpcReply
                0x20132060                xdr_u_char
                0x200511fc                CTimer::~CTimer(void)
                0x200cda34                sendmsg
                0x2009edac                _dleq
                0x2010e9b4                spyClkStop
                0x20002770                AT91F_PIO_Get_AB_RegisterStatus
                0x2011316c                qPriListKey
                0x200f553c                strcoll
                0x2004c0e4                CModuleManager::UnloadModule(unsigned short)
                0x200844f8                _cplusDemangle
                0x200f746c                clockLibInit
                0x200f1610                isupper
                0x2005d3d8                FPGAovlyGetUserVersion
                0x200077a8                at91EthPollSend
                0x200c0474                ftpXfer
                0x2012bbec                wdStart
                0x2000badc                usrNetRemoteCreate
                0x200a10e0                _dflt
                0x200f57f4                strncmp
                0x2000192c                AT91F_RTC_GetInterruptMaskStatus
                0x2000b5b4                usrNetConfig
                0x200c1630                ipHeaderCreate
                0x20044000                CAppInterface::FreeMessage(S_MESSAGE *)
                0x200a1b50                cacheArm920tDClear
                0x20102f2c                symTblRemove
                0x2001062c                BSP_DrvInit
                0x2004aa2c                PF_GetMessageNumber
                0x20128fa0                taskActivate
                0x2004af88                CModule::AddMessages(unsigned short)
                0x2005ac70                CVPNode::CVPNode(unsigned short)
                0x200a02f8                _f_fge
                0x20060154                C751SetMainControl
                0x2012e57c                r8
                0x200023cc                AT91F_PIO_SetOutput
                0x201047e0                tyAbortSet
                0x2007e878                JpegConvert8x8YCbCrTORGBTab
                0x2012cb3c                windReadyQRemove
                0x20053ec0                PF_UnregisterSystemMessage
                0x2006ab7c                ScalHideWnd
                0x20103c50                taskSwapHookDelete
                0x2000c5e8                sysStart
                0x200b3558                rn_addmask
                0x2000e67c                usrRoot
                0x201044b8                ttyDevCreate
                0x2005f600                FPGAovlySetImage2ACTVerticalStart
                0x2005d320                FPGAdesGetImageType
                0x200fc1fc                ioGlobalStdSet
                0x2003c6a8                CProcAlarm type_info function
                0x200b90e8                net_sysctl
                0x200c14d4                sethostname
                0x20104274                taskVarDelete
                0x20096808                intUninitVecSet
                0x200035f8                AT91F_SSC2_CfgPMC
                0x2001458c                BSP_GetBoardTypeId
                0x20123b14                xdr_WDB_EVTPT_ADD_DESC
                0x200f12ac                print64
                0x200a3c70                __ugt64
                0x2000f3bc                MAILBOX_ALARM_EVENT_BS
                0x2009ee0c                _d_div
                0x200d2198                igmp_input
                0x2009b514                pow
                0x2001eb7c                BSP_SoftUpgrade
                0x2005f674                FPGAovlySetImage2ACTHorizontalEnd
                0x201101c8                attrib
                0x2011d618                flAddLongToFarPointer
                0x200031fc                AT91F_UDP_EpStall
                0x2003b238                CProcAlarm::~CProcAlarm(void)
                0x200c352c                muxIoctl
                0x200f5838                strncpy
                0x20002bcc                AT91F_US_Close
                0x200fbd58                unlink
                0x20099828                sinh
                0x2005a098                CVideoPreview::EndVideoPreview(unsigned char)
                0x20002358                AT91F_PIO_CfgInputFilter
                0x200cf438                telnetdStaticTaskInitializationGet
                0x20053e68                PF_RegisterSystemMessage
                0x20044bac                CLinkNode::ResetErrorTimes(void)
                0x200966b8                intConnect
                0x2000ca90                wdbTgtHasFppSet
                0x200a0334                __eqsf2
                0x2004f734                exctest
                0x200f285c                __sfvwrite
                0x2010dc7c                devs
                0x200dc5cc                tcp_fasttimo
                0x200a1eb0                __DIAB_rd_pk_db
                0x20003a18                AT91F_MCI_CfgPIO
                0x200926c4                __user_type_info::contained_nonvirtual_p(__user_type_info::sub_kind)
                0x200c0154                ftpDataConnInitPassiveMode
                0x200cd91c                sendto
                0x200d79b8                tcp_dooptions
                0x200c33d8                muxDevStart
                0x2009b024                log10
                0x20105524                tyWrite
                0x200c1118                hostTblSearchByName
                0x20009b4c                sysBspRev
                0x2003dec8                CCtrlPackage::GetDataAddress(unsigned char *&) const
                0x200a6004                __negdi2
                0x200f7170                classInit
                0x20131ec4                xdr_u_long
                0x20079124                WndGetFirst
                0x2005f3c8                FPGAovlySetImage1ACTHorizontalStart
                0x200299f4                CfgMgr::~CfgMgr(void)
                0x2005ead8                FPGAovlySetImage3HorizontalStart
                0x200bf3bc                ftpReplyGetEnhanced
                0x200439b0                CSocketNode virtual table
                0x200428dc                CProtocol::SerializePackage(unsigned char *, CPackage *&)
                0x20079b50                SPCWndOpenTest
                0x200704bc                SPCCheckChannel
                0x2005f188                FPGAovlySetVerticalSync
                0x200fd2a4                logTask
                0x2006c010                Sp12Reset
                0x2010def4                substrcmp
                0x200bb8b0                arpResolve
                0x20113238                rngFlush
                0x200ba348                soisconnected
                0x200a3e4c                __diab_alloc_semaphore
                0x200fdcd4                memPartAddToPool
                0x20062164                C751SetOutputImageControl
                0x20091200                set_new_handler(void (*)(void))
                0x20106728                c
                0x2004e7e0                start485
                0x2012ad68                taskShowInit
                0x200bb5a0                arpCmd
                0x20001b90                AT91F_SSC_SendFrame
                0x2004a8bc                PF_DeleteMailBox
                0x200f725c                classDestroy
                0x20002dfc                AT91F_MCI_Disable_Interface
                0x2004b0d0                CModule::UnloadModule(void)
                0x20126cd0                semBGiveDefer
                0x200038e4                AT91F_TWI_CfgPIO
                0x200382b8                CSoftUpGrade::DeleteSoft(VWAS_CMD_S *, unsigned long)
                0x20122234                wdbVioChannelRegister
                0x20070a04                SPCWndOpen
                0x2009034c                __start_cp_handler
                0x2010a894                moduleInfoGet
                0x200fdbf8                realloc
                0x200a3f08                endTxSemTake
                0x200a3be8                __lt64
                0x20003c94                sysClkEnable
                0x200a3f24                endTxSemGive
                0x2012a29c                taskStackAllot
                0x200ca434                netLibInit
                0x2005d6c0                FPGAovlySetBackgroundStartX
                0x20041e10                CPackage::SetHeadPointer(unsigned char const *)
                0x2011ebf4                wdbSuspendSystem
                0x200436e4                CSocketNode::SetSocketValid(unsigned char)
                0x20063454                C751SetVerticalShrinkScale
                0x200b0c90                ip_optcopy
                0x20043d88                CAppInterface::CreateMailBox(unsigned short, unsigned long, unsigned short, int, unsigned long, int)
                0x2008f4b4                __default_alloc_template<true, 0>::reallocate(void *, unsigned long, unsigned long)
                0x2002c18c                CfgMgr::GetVoltageTh(BD_CMD_S *, unsigned long)
                0x20071e48                SPCTestRed
                0x200f9b78                scanField
                0x20017e50                LoadFpga_ALTERA
                0x2004c66c                CModuleManager::MailBoxEventHandler(void)
                0x2010cef0                periodRun
                0x20080ddc                JpegDecodeMCU
                0x20075280                ProcessSetColorkey
                0x20094334                unsigned char type_info function
                0x20102a7c                symTblInit
                0x200bb380                panic
                0x20016f34                BSP_AT91F_OR_PIO_SetOutput
                0x200a3a44                __urem64
                0x200a5210                __fpcmp_parts_d
                0x200a422c                endObjFlagSet
                0x2009eb88                _dabs
                0x200a424c                end8023AddressForm
                0x20123950                xdr_WDB_CALL_RETURN_INFO
                0x200a1dd8                __fpl_dcheck_NaN2
                0x20002b4c                AT91F_US_ResetRx
                0x2012b96c                wdDestroy
                0x20123bf0                xdr_WDB_MEM_REGION
                0x20130938                semCTake
                0x200db5f4                tcp_init
                0x20041f94                CPackage::GetDestinationMailBox(unsigned short &) const
                0x2006b854                ScalISR
                0x20003118                AT91F_UDP_SetAddress
                0x20001000                sysInit
                0x20130c1c                _sigCtxLoad
                0x200139f4                BSP_GetCurStatus
                0x2000e8dc                BSP_MulAdd
                0x200c29c8                igmpLibInit
                0x2006d60c                Sp12GetC751HorizontalCompensation
                0x20003470                AT91F_ST_GetInterruptMaskStatus
                0x200a039c                _f_div
                0x200c23c0                ifBroadcastSet
                0x200498fc                CPackageCounter::GetReceiveOKTimes(void) const
                0x200ad574                in_addmulti
                0x201138c0                iosDrvShow
                0x200420b4                CPackage::GetSubType(unsigned char &) const
                0x20123538                wdbUserEvtLibInit
                0x2000e480                usrShellInit
                0x20103870                symShowInit
                0x2011257c                lstInit
                0x200e0ae8                cbioBlkCopy
                0x20102ed4                symSAdd
                0x2013073c                fppArchTaskCreateInit
                0x200bb3ec                _netMalloc
                0x200419c4                COnLinePackage::PostSend(void)
                0x200a0684                __fixsfdi
                0x200037c8                AT91F_SMC2_CfgPIO
                0x200201a0                sysFlashDataPoll16
                0x200db77c                tcp_template
                0x2011cd50                flDontNeedVpp
                0x200a46f0                loattach
                0x200ab404                _db_show_arptab
                0x201128e4                qFifoPut
                0x2003cafc                C485Client::~C485Client(void)
                0x2004afdc                CModule::DeleteMessages(unsigned short)
                0x20050948                VOS_GetErrno
                0x20094898                bcopy
                0x2000bdac                sysClkInit
                0x2010dfa0                changeReg
                0x20112bbc                qFirst
                0x2001f694                BSP_CalBackTest
                0x20059394                COfflineSystemMessage type_info function
                0x20038a50                CSoftUpGrade::SoftwareIsCorrect(void)
                0x200f5974                strtok
                0x2000beec                usrBanner
                0x2009eb78                __negdf2
                0x200a0844                _f_ftoull
                0x20130cd4                sllPutAtTail
                0x20112604                lstDelete
                0x200b9738                mHdrClGet
                0x200d71c0                tcp_reass
                0x2000396c                AT91F_US1_CfgPMC
                0x200c19ec                ipHeaderVerify
                0x200c6728                muxTkUnbindUpdate
                0x20100ed0                sigfillset
                0x20127570                semFlushDefer
                0x2005f0a0                FPGAovlySetVerticalTotal
                0x20003948                AT91F_US2_CfgPIO
                0x200508fc                VOS_SetSysClkRate
                0x200f5374                memcmp
                0x20001644                AT91F_PDC_IsRxEmpty
                0x200cd724                listen
                0x20049a20                CPackageCounter::SetRcvDataPackages(unsigned long)
                0x200a2520                sfpDoubleNormalize2
                0x20043920                CSocketNode::operator==(unsigned char const &) const
                0x200854ec                cplus_demangle_opname
                0x201291bc                taskLock
                0x200a321c                __udiv32
                0x20090390                __cplus_type_matcher
                0x20013fe8                BSP_ShowDog
                0x200ba424                sbreserve
                0x200f13f4                print64Fine
                0x200a32c4                __diab_intrinsics_tornInit
                0x201223ec                udpRcv
                0x20049da0                CProtocolInterface::~CProtocolInterface(void)
                0x201274f0                semTerminate
                0x20132140                xdr_opaque
                0x200a3e78                endRcvRtnCall
                0x200d30c4                in_pcbladdr
                0x2011f268                wdbRpcResendReply
                0x20002ccc                AT91F_US_SendFrame
                0x20010528                BSP_DrvGetMac
                0x2000e2f4                usrNetworkAddrInit
                0x200c0fd0                hostDelete
                0x200f1800                fdopen
                0x200fd4a0                memLibInit
                0x20042f08                CProtocol virtual table
                0x2006a960                ScalPauseChannel
                0x20084684                xrealloc
                0x2006007c                C751SetBankRegister
                0x200ba0c4                sbwakeup
                0x200fa278                sscanf
                0x2008f99c                __default_alloc_template<true, 0>::_S_round_up(unsigned long)
                0x2003244c                CCfgTcpSocket::GetInstance(void)
                0x2000c53c                usrStandaloneInit
                0x20037a50                CSoftUpGrade::TransFileEnd(VWAS_CMD_S *, unsigned long)
                0x2004be00                CModuleManager::LoadModule(unsigned short)
                0x20064868                C751GetChannel2InputHorizontalSyncPulseWidth
                0x2000413c                BSP_TimeInit
                0x20016db8                BSP_AT91F_PIO_CfgPullup
                0x200647e8                C751GetChannel2InputVerticalSyncFrequency
                0x200e526c                dosChkDsk
                0x200fd13c                logInit
                0x200170e0                BSP_AT91F_PIO_OutputDisable
                0x200f7ec4                envShow
                0x20043968                CSocketNode::operator==(long const &) const
                0x20077918                WndNew
                0x200d76f4                tcp_xmit_timer
                0x200f1550                isalpha
                0x20059110                COfflineSystemMessage::COfflineSystemMessage(unsigned char)
                0x2006dd40                Sp12GetC751InputChannelHeightScale
                0x20064908                C751GetStatus
                0x200a17fc                _ll_sto_f
                0x2010ec50                dosFsConfigGet
                0x20037034                CSoftUpGrade::BeginUpgrade(VWAS_CMD_S *, unsigned long)
                0x20071048                SPCWndClose
                0x2005d44c                FPGAovlyGetTestVersion
                0x2009ee0c                __divdf3
                0x200919b4                __si_type_info::do_upcast(__user_type_info::sub_kind, type_info const &, void *, __user_type_info::upcast_result &) const
                0x20130ad0                semMTake
                0x20106b48                tt
                0x2009eb80                __negsf2
                0x2002b540                CfgMgr::ClrLed(BD_CMD_S *, unsigned long)
                0x2000365c                AT91F_SSC1_CfgPIO
                0x20003728                AT91F_TC4_CfgPMC
                0x200f57a8                strncat
                0x200c653c                muxTkBibInit
                0x20013bc0                BSPLoadSoft
                0x200967a0                intLockLevelGet
                0x20123174                wdbEvtptLibInit
                0x20126b4c                semBInit
                0x200cac50                inetstatShow
                0x200cb678                routeShow
                0x20094154                unsigned long long type_info function
                0x20001888                AT91F_DBGU_InterruptDisable
                0x20002dc4                AT91F_MCI_DisableIt
                0x200117b8                LedAlarmStateChg
                0x20098170                workQAdd2
                0x200bab00                sbappend
                0x2005e2ec                FPGAovlySetImage3Priority
                0x2010effc                copyStreams
                0x200039f8                AT91F_MCI_CfgPMC
                0x20032ca0                CAlarmTcpSocket::taskRecv(void *, unsigned long)
                0x200ffcd8                ptyDrv
                0x200cf758                tftpQuit
                0x2010125c                sigaction
                0x20112d38                qPriBMapListDelete
                0x20002edc                AT91F_AIC_DisableIt
                0x20003864                AT91F_PIOC_CfgPMC
                0x2004dde8                CStandbySystemMessage::~CStandbySystemMessage(void)
                0x200961f4                intVBRSet
                0x200ea424                dosFsChkDsk
                0x200073c8                at91EthTbdCheck
                0x200ac48c                bcopy_to_mbufs
                0x200e87a4                fat16ClustValueSet
                0x20001e8c                AT91F_SPI_GetChar
                0x200a1138                _ll_uto_d
                0x200abd18                ether_ifattach
                0x200506b8                VOS_ReceiveMsg
                0x200a11e0                __muldf3
                0x2010a404                moduleCreate
                0x2005d06c                FPGAdesSetImage2VerticalStart
                0x2010a058                moduleSegEach
                0x2011ca3c                flResetCardChanged
                0x200bb268                splnet2
                0x200f7118                cacheDrvPhysToVirt
                0x2000e560                usrIosCoreInit
                0x20015d84                TestCpld
                0x2003e010                CCtrlPackage::AddSendCounter(CPackageCounter &) const
                0x2002a004                CfgMgr::ProcNsCmd(BD_CMD_S *, unsigned long)
                0x20103ec0                taskSwapHookAttach
                0x20013450                FlashPageWTest
                0x200173a0                BSP_AT91F_PIO_GetMultiDriverStatus
                0x20050518                VOS_CreateMsgQue
                0x2012b030                taskStatusString
                0x200a2e44                __DIAB_wr_pk_ld
                0x200f3804                __sread
                0x2001769c                ResetFpga_ALTERA
                0x2003b144                global constructors keyed to CSoftUpGrade::m_pUpgrade
                0x200d1f44                ifIndexLibShutdown
                0x20011120                BSP_TEST
                0x200a6110                __thenan_sf
                0x200f2058                fread
                0x20043690                CSocketNode::SetSocket(long)
                0x200913e4                type_info::~type_info(void)
                0x200c410c                muxDevUnload
                0x200afdd8                ipintr
                0x2003c338                CProcAlarm::ProcBdVoltageAlarm(void)
                0x201137c8                fppInit
                0x2003d954                CCtrlPackage::~CCtrlPackage(void)
                0x20002868                AT91F_PIO_IsOutputDataStatusSet
                0x2000e4a4                usrShowInit
                0x20095974                dllRemove
                0x20128ddc                taskResume
                0x200aeefc                ip_init
                0x20101630                sigreturn
                0x2012c258                windResume
                0x2006fd1c                SPCSetWindowCompensation
                0x2000c0f4                usrKernelInit
                0x2005ce04                FPGAdesSetImage0HorizontalStart
                0x200c2dfc                inet_network
                0x2012969c                taskDestroy
                0x2012a1b4                taskIdVerify
                0x20033f74                CDebugTcpSocket virtual table
                0x200bb228                splnet
                0x20002530                AT91F_PIO_InputFilterEnable
                0x2012a1a8                taskIdSelf
                0x200c4724                muxDevLoad
                0x2007cc00                SPCHelp
                0x200a7838                ifa_ifwithaddr
                0x2011e95c                wdbExternInit
                0x2001494c                I2cClk
                0x2006da64                Sp12GetC751InputChannelHorizontalCompensation
                0x2000bc50                rtMem
                0x2000e418                usrWdbInit
                0x20041a18                COnLinePackage virtual table
                0x20060324                C751GetTransferControl
                0x200c55ac                muxTkCookieGet
                0x20016b80                BSP_AT91F_OR_PIO_CfgPeriphA
                0x2005d220                FPGAdesDisableInputChannel
                0x200cebf8                telnetdExit
                0x20131db0                qJobEach
                0x2000b694                usrNetEndDevStart
                0x200a1ad4                cacheArm920tDInvalidateAll
                0x200c6444                muxTkBibShow
                0x200018f4                AT91F_RTC_InterruptEnable
                0x20072fa8                ProcessOpenWnd
                0x200c3034                inet_aton
                0x200d18ec                netMblkClGet
                0x20063a00                C751SetField1MemoryReadStartAddress
                0x200613e0                C751SetOutputPortOAOI0VerticalStart
                0x2006ace0                ScalSetChannelStatus
                0x20001d68                AT91F_SPI_ReceiveFrame
                0x20112578                lstLibInit
                0x200974c0                semGive
                0x20073958                ProcessSetTopWnd
                0x200edf88                dosFsLastAccessDateEnable
                0x2006f2b0                SPCGetDesktop
                0x20010e28                BSPGetSoft_TEST
                0x2003e8b0                CDataPackage::GetSourceMailBox(unsigned short &) const
                0x200fc09c                ioDefPathGet
                0x200a77fc                ifIndexToIfp
                0x2006de24                SPCGetVer
                0x2005cb30                FPGAdesDisableInterrupt
                0x20031ec4                CTcpSocket::DecreaseNode(int)
                0x20130c30                _sigCtxStackEnd
                0x200cdf04                tcpLibInit
                0x200a0334                __cmpsf2
                0x20110e60                index
                0x20051904                CTimerIDPool::FreeTimerID(unsigned long)
                0x2001a7cc                ftpdInit
                0x20009b68                sysHwInit0
                0x20077248                SPCTask
                0x2009248c                bad_cast::~bad_cast(void)
                0x200d3688                in_setsockaddr
                0x200bdb10                bsdListen
                0x2003ec40                operator>>(S_MESSAGE const &, unsigned char *)
                0x2006d444                Sp12GetVerticalSync
                0x2000c3e0                usrSerialInit
                0x2012b298                taskOptionsString
                0x20012abc                BSP_NandFlashFileWrite_L
                0x2004d9b4                CRebootSystemMessage::CRebootSystemMessage(unsigned char)
                0x200af0e4                ip_slowtimo
                0x200e3710                dcacheShow
                0x200f1e1c                fopen
                0x2005eb48                FPGAovlySetImage3VerticalStart
                0x20092250                __si_type_info virtual table
                0x2004406c                CAppInterface::SendMessage(S_MESSAGE *)
                0x2012a278                taskPriorityGet
                0x2006cf84                Sp12GetDispSubUnit
                0x20124488                xdr_CHECKSUM
                0x200f6d54                cacheEnable
                0x2000f3c0                BD_MAILBOX_CFG_BS
                0x200f5bf0                asctime_r
                0x200f827c                fioFltInstall
                0x200e0d04                cbioWrapBlkDev
                0x200baa54                sbappendrecord
                0x2005f758                FPGAovlySetImage3ACTHorizontalStart
                0x200f5f94                localtime
                0x200be0cc                bsdSendmsg
                0x20116604                lexActions
                0x200f5428                memset
                0x200087bc                at91EthMiiShow
                0x2009f410                _d_dtoi
                0x2011cb84                flSetWindowSize
                0x200036a0                AT91F_SSC0_CfgPIO
                0x2010efb0                pwd
                0x20121864                wdbBpInstall
                0x200a49d4                __gcc_bcmp
                0x20113484                rngFreeBytes
                0x2004dc00                CRebootSystemMessage type_info function
                0x20103e08                taskSwitchHookDelete
                0x2000c900                wdbConfig
                0x200cb850                mRouteShow
                0x200de008                sodisconnect
                0x20112b54                qTerminate
                0x200033ac                AT91F_UDP_EpStatus
                0x200961c8                intIFLock
                0x200792d4                WndResize
                0x200fc8b0                iosIoctl
                0x201034d4                symFindByValueAndType
                0x200fb700                hashTblRemove
                0x20090384                __eh_free
                0x200ac730                do_protocol_with_type
                0x20090448                __cp_pop_exception
                0x2005cc04                FPGAdesGetDeserInterruptStatus
                0x200f814c                excTask
                0x200be4d4                bsdConnect
                0x200116f0                LedStateChg
                0x2006b05c                ScalCompensateChannel
                0x2012e360                _dbgFuncCallCheck
                0x200a56a4                __div0
                0x2005a218                CVideoPreview::tListener(void *)
                0x20001108                sysBusToLocalAdrs
                0x2004c240                CModuleManager::UnregisterSystemMessage(unsigned short, unsigned short)
                0x20017400                BSP_AT91F_PIO_A_RegisterSelection
                0x2008b718                _sch_tolower
                0x200a1ae0                cacheArm920tDInvalidate
                0x200337a4                taskSoftupgradeSocket
                0x200e0c00                cbioDevCreate
                0x200b98a0                m_adj
                0x20050030                VOS_CreateTask
                0x2003e5c4                CDataPackage::CDataPackage(unsigned char *)
                0x200f279c                ftell
                0x20039430                taskSoftUpgrade
                0x200a07e8                _ffixu_r
                0x20093d94                double type_info function
                0x20067478                OvlyShowWnd
                0x200cb024                routestatShow
                0x20130760                qPriBMapPut
                0x200f4024                __swbuf
                0x200f4c1c                srand
                0x20033430                SoftRspCmdToNs(VWAS_CMD_S *, unsigned long, unsigned long)
                0x2000f3ba                MAILBOX_ALARM_EVENT_NS
                0x2010ec30                dosFsDevInitOptionsSet
                0x200f5b20                strxfrm
                0x20062bc8                C751SetInputPortACTHorizontalWidth
                0x200a2154                _d_cmpe
                0x200e0b38                cbioBytesRW
                0x2002bf98                CfgMgr::SetVoltageTh(BD_CMD_S *, unsigned long)
                0x20073758                ProcessHideWnd
                0x2012c9a8                windPendQGet
                0x2005dcdc                FPGAovlyWriteBackground24BitPixel
                0x200a0334                __ltsf2
                0x200b5b1c                rt_setgate
                0x20064768                C751GetChannel2InputHorizontalSyncFrequency
                0x200c3c24                muxPacketDataGet
                0x20053f64                PF_Reboot
                0x200ac66c                build_cluster
                0x201138bc                iosShowInit
                0x200010e0                sysLocalToBusAdrs
                0x20091404                type_info::operator==(type_info const &) const
                0x200979bc                vxTas
                0x200fc234                ioTaskStdSet
                0x200c1358                hostAdd
                0x2004e41c                CSystemMessage::GetSubMessageID(void) const
                0x200c3c7c                muxPollSend
                0x201128ac                qFifoCreate
                0x200bffb0                ftpTransientFatalInstall
                0x20121d00                wdbE
                0x2012799c                semQFlushDefer
                0x20068cc0                OvlySetTestBlue
                0x200f16b8                clearerr
                0x20003288                AT91F_UDP_EpRead
                0x2010b7e8                spyLibInit
                0x200ff6f8                pipeDrv
                0x200a1f68                __DIAB_rd_sw_db
                0x2003df80                CCtrlPackage::GetSubType(unsigned char &) const
                0x2009ed70                _dneq
                0x201324f4                ixdr_get_long
                0x2003e0bc                CCtrlPackage::SetSequenceNumber(unsigned short)
                0x200bb2e8                splx
                0x200b9880                m_cat
                0x20010cf0                BSP_MemUsage
                0x200f38b8                __sclose
                0x200919a0                __user_type_info::do_find_public_subobj(int, type_info const &, void *, void *) const
                0x200b6bb0                rtinit
                0x200d1800                netMblkClChainFree
                0x200435cc                CSocketNode::CSocketNode(long, unsigned char, unsigned char)
                0x200459c8                CMailBoxMap::GetAllMailBoxes(void) const
                0x2005a618                CVideoPreview::SetSocketOption(long) const
                0x200cd020                mRouteAdd
                0x200031e0                AT91F_UDP_ResetEp
                0x200e0450                initstate
                0x200f6e24                cacheFlush
                0x20127794                semIntRestrict
                0x200503b8                VOS_CreateMSem
                0x200f1714                fclose
                0x200d06d4                tftpXfer
                0x2005e89c                FPGAovlySetImage1VerticalEnd
                0x2004e130                CStartupSystemMessage::GetDataLength(void) const
                0x200f2d20                getchar
                0x2009eb98                __truncdfsf2
                0x200a1e98                __common_intrinsicsInit
                0x2009239c                type_info::type_info(char const *)
                0x200a0320                _fls
                0x200bf278                etherMultiDel
                0x201323c4                xdr_string
                0x20008c18                secEndLoad
                0x2003dd58                CCtrlPackage::GetDestinationBD(unsigned char &) const
                0x20091058                exception virtual table
                0x20115f78                ledControl
                0x200e9e3c                dosFsVolFormat
                0x200c2ff8                inet_ntoa
                0x200fc02c                ioDefPathSet
                0x20129264                taskUnlock
                0x200f1428                print64Row
                0x200bc1a4                ipAttach
                0x2012e574                r7
                0x200bb310                ksleep
                0x20001b00                AT91F_SSC_DisableTx
                0x200f6ce0                time
                0x200f77d4                opendir
                0x20017268                BSP_AT91F_PIO_InterruptDisable
                0x200026cc                AT91F_PIO_MultiDriverDisable
                0x20043774                CSocketNode::GetBoardID(void) const
                0x2010f98c                lsr
                0x200028cc                AT91F_TWI_EnableIt
                0x200d3608                in_pcbdetach
                0x200603e8                C751Reset
                0x200103d8                BSP_SysRunLedFlic
                0x200044d8                at91SioDevInit2
                0x20069c18                ScalSetConfig
                0x2006fbd4                SPCGetColorkey
                0x200cce1c                routeDelete
                0x20105cec                bd
                0x20051400                CTimer::GetMilliseconds(void)
                0x2010eff8                rm
                0x20123d20                xdr_WDB_REG_WRITE_DESC
                0x200f1598                isgraph
                0x2002a9a4                CfgMgr::GetHardVer(BD_CMD_S *, unsigned long)
                0x200af340                ip_forward
                0x20041fc4                CPackage::GetSourceMailBox(unsigned short &) const
                0x200cfb88                tftpSend
                0x2000b4b0                usrNetIfConfig
                0x2007d7d8                JpegProcessHuffmanData
                0x20096938                mmuArm920tLibInstall
                0x200a0c70                _dadd
                0x20021ae4                ReadLM73
                0x20095d40                excExcContinue
                0x20101abc                sigtimedwait
                0x200db5e4                tcpRandHookDelete
                0x20021574                flwAmdMTDIdentify
                0x2003f74c                CEthnClient::Uninstance(void)
                0x200b54e0                routeSwap
                0x200844b8                cplusCallDtors
                0x200f1b00                fgetpos
                0x200039b4                AT91F_US0_CfgPMC
                0x2012e05c                cplusUnloadFixup
                0x200f7220                classLibInit
                0x2002a77c                CfgMgr::GetIP(BD_CMD_S *, unsigned long)
                0x200f1538                isalnum
                0x200a0248                _f2d
                0x20002220                AT91F_PMC_EnablePCK
                0x20038aec                CSoftUpGrade::WriteSoftwareToFlash(void)
                0x2008b818                _sch_toupper
                0x20013818                BSP_GetMainSoftStatus
                0x200f3d7c                tmpnam
                0x2007b2f8                SPCGetChCompensate
                0x20060424                C751SetOutputSyncControl
                0x200022ac                AT91F_PIO_CfgOutput
                0x20095e84                excVecGet
                0x200f15c8                isprint
                0x20096418                intIntRtnPreempt
                0x200f59f4                __strxfrm
                0x2010cb28                timexN
                0x20099c3c                exp
                0x20014250                initDog
                0x20131b34                qJobGet
                0x20062da8                C751SetInputPortACTVerticalWidth
                0x200a0844                __fixunssfdi
                0x200173c8                BSP_AT91F_PIO_IsMultiDriverSet
                0x20131f98                xdr_u_int
                0x200f3084                putc
                0x2010cc08                timex
                0x200a5160                __divsi3
                0x2010cd90                help
                0x200ca1a4                netDrvFileDoesNotExist
                0x200b96b8                mBufClGet
                0x200c3ad4                muxAddressForm
                0x2010d90c                d
                0x2011f2dc                wdbRpcNotifyConnect
                0x200ba670                sbappendcontrol
                0x2010b4d4                execute
                0x200a5554                __thenan_df
                0x2005f354                FPGAovlySetImage0ACTVerticalEnd
                0x2011d48c                flFreeMutex
                0x200b97c8                m_getclr
                0x200c3d30                muxReceive
                0x20126a48                semBLibInit
                0x200437d0                CSocketNode::GetBoardType(void) const
                0x2005e3d0                FPGAovlyEnableOutput
                0x20049c10                CPackageCounter::SetSendDataPackages(unsigned long)
                0x2005cc78                FPGAdesGetTest1
                0x2009017c                __sjpopnthrow
                0x20001cd4                AT91F_SPI_Enable
                0x200a1880                __mulsf3
                0x201032d8                symFindByNameAndType
                0x200f4500                div_r
                0x20112ccc                qInfo
                0x200e30b8                dcacheDevCreate
                0x200159e0                i2cReadWrite
                0x2005d6f8                FPGAovlySetBackgroundStartY
                0x200a1dd0                _fp_trap
                0x2000151c                AT91F_PDC_SetNextTx
                0x20002310                AT91F_PIO_CfgPullup
                0x200cc788                rresvport
                0x200e3008                dcacheDevMemResize
                0x2006322c                C751SetHorizontalShrinkScale
                0x20062a3c                C751SetDigitalInterfaceControl
                0x2005f4ac                FPGAovlySetImage1ACTHorizontalEnd
                0x20091a38                __si_type_info::do_dyncast(int, __user_type_info::sub_kind, type_info const &, void *, type_info const &, void *, __user_type_info::dyncast_result &) const
                0x2011f9e0                wdbCtxCreate
                0x20061180                C751ResetInterrupt
                0x2004f4cc                tUrgencyTest
                0x2005b5a4                PF_StartPreview
                0x200f5498                strcmp
                0x2007cde0                SPCDateAndTime
                0x2006d198                Sp12GetHorizontalSync
                0x200cde5c                shutdown
                0x200a0acc                __funder_d
                0x20128b88                taskLibInit
                0x20002a7c                AT91F_US_EnableIt
                0x20006c7c                at91EthLoopSet
                0x200c23b4                ifDstAddrSet
                0x2011d634                toUNAL
                0x200032c4                AT91F_UDP_EpEndOfWr
                0x20018e8c                testio
                0x2005ae54                CVPNode::SetClient(long)
                0x20010480                BSP_SysAlarmLedFlic
                0x2002cb74                CfgMgr::RspCmdToDebugSocket(BD_CMD_S *, unsigned long)
                0x200fb4e8                hashTblCreate
                0x20067958                OvlyBringWndToTop
                0x200b4b20                rtable_init
                0x20001618                AT91F_PDC_IsNextTxEmpty
                0x20099568                tan
                0x20002904                AT91F_TWI_Configure
                0x2002f9e4                CheckDayIsCorrect(unsigned short, unsigned char, unsigned char)
                0x200b9f80                sbselqueue
                0x200ff154                objCoreTerminate
                0x200f4590                ldiv_r
                0x2004bae0                CModuleManager::RegisterModule(unsigned short, unsigned short, long (*)(unsigned long), unsigned long, long (*)(unsigned long), unsigned long)
                0x201241a0                xdr_WDB_OPQ_DATA_T
                0x20050340                VOS_CreateBSem
                0x20071624                SPCWndGetList
                0x200e0700                cbioShow
                0x201134c8                rngPutAhead
                0x200c5bd8                muxTkPollReceive2
                0x2000e630                usrIosExtraInit
                0x2005976c                __builtin_vec_new
                0x200b457c                rn_walksubtree
                0x2010fe04                xcopy
                0x2008f068                __malloc_alloc_template<0>::_S_oom_malloc(unsigned long)
                0x200a7a88                ifa_ifwithaf
                0x2010cec0                bootChange
                0x20060230                C751SetCh2MainControl
                0x200beb84                bsdAccept
                0x200d6d2c                soo_select
                0x20101a94                sigblock
                0x2009cc24                copysign
                0x20102580                sigqueue
                0x200fc0a8                getcwd
                0x20032e54                CDebugTcpSocket::GetInstance(void)
                0x20001c0c                AT91F_SSC_IsInterruptMasked
                0x20128978                taskRegsGet
                0x20093bb4                wchar_t type_info function
                0x20062338                C751SetHorizontalZoomScale
                0x20126ba4                semBCreate
                0x2009edd4                __nedf2
                0x2009f7c8                __fixunsdfdi
                0x200b8ff4                pffindtype
                0x20123070                wdbDbgBpRemoveAll
                0x200a062c                _ffix_r
                0x20123814                xdr_WDB_CTX_STEP_DESC
                0x200547cc                CMemoryPool::FreeBlock(void *)
                0x20017318                BSP_AT91F_PIO_IsInterruptSet
                0x20129ef0                taskDelete
                0x2010561c                vmBaseLibInit
                0x200fd06c                logFdDelete
                0x2004db8c                CRebootSystemMessage::GetDataLength(void) const
                0x2007e0f8                JpegPrecalculateCrCbTables
                0x2003cd74                C485Client::ReceiveFrameCallBack(unsigned long, unsigned char *)
                0x2002bdb0                CfgMgr::GetVoltageValue(BD_CMD_S *, unsigned long)
                0x20093104                __rtti_func
                0x2009f538                _d_dtoll
                0x20049d78                CProtocolInterface::CProtocolInterface(void)
                0x20103e14                taskCreateHookDelete
                0x201119b4                bootStringToStruct
                0x200a91d4                arptfree
                0x200ab440                db_show_arptab
                0x20090288                __eh_rtime_match
                0x2010e8b4                logout
                0x2003de6c                CCtrlPackage::GetDataLength(unsigned short &) const
                0x2011314c                qPriListCalibrate
                0x2003eab0                CDataPackage::AddSendCounter(CPackageCounter &) const
                0x2006eb74                SPCGetConfigure
                0x200f6ec0                cachePipeFlush
                0x2000bc54                bufferedRtShow
                0x20031cd8                CTcpSocket::IncreaseNode(int)
                0x20049a4c                CPackageCounter::SetRcvCtrlPackages(unsigned long)
                0x20130cf8                sllGet
                0x200f39dc                stdioFpDestroy
                0x200f40f4                __swsetup
                0x200ce0a8                telnetdParserSet
                0x20003884                AT91F_PIOB_CfgPMC
                0x200d12e0                netPoolDelete
                0x2011c8f0                flIdentifyFlash
                0x2012bd7c                wdCancel
                0x20098b98                atan
                0x201042f0                taskVarGet
                0x20002e34                AT91F_AIC_ConfigureIt
                0x200f1a78                fgetc
                0x200c1504                gethostname
                0x200d2024                igmp_init
                0x200fd618                memalign
                0x200977e8                semQGet
                0x200501e8                VOS_ResumeTask
                0x200f9124                sprintf
                0x2004af38                CModule::GetModuleID(void) const
                0x200688e0                OvlySetTestBlack
                0x200a02e4                _f_fgt
                0x2011e884                wdbTaskInit
                0x200a2254                sfpDoubleNormalize
                0x20112c44                qAdvance
                0x20044b04                CLinkNode::AddDumbTimes(void)
                0x200362a0                CSoftUpGrade::TUpgrade_ReceiveTask(void *)
                0x20028b94                PinACs
                0x2012c798                windWdStart
                0x2004994c                CPackageCounter::GetRcvDataPackages(void) const
                0x2005bd18                DeserInitChannel
                0x200a1140                _d_lltod
                0x20067cf0                OvlySetColorkey
                0x20061b00                C751SetOutputBackground1
                0x200a1d7c                mmuArm920tTtbrSet
                0x200fb5b8                hashTblTerminate
                0x2009f538                __fixdfdi
                0x200f5758                strerror_r
                0x201307cc                qPriBMapGet
                0x200f5c98                difftime
                0x2013075c                fppRestore
                0x200724c8                SPCTestColorSlice
                0x20006074                Disable_mac_address
                0x2005952c                memdebug
                0x200a02d0                _f_fne
                0x200a4aa0                __cmpdi2
                0x2011f3d8                wdbSvcLibInit
                0x2001884c                load_fpga_LATTICE
                0x200ad4c0                mcastHashTblLookup
                0x200f446c                atexit
                0x200af224                ip_rtaddr
                0x20019c30                UrgencyTask
                0x2004a9d4                PF_ReceiveMessage
                0x20002848                AT91F_PIO_GetCfgPullup
                0x20003568                AT91F_SDRC_CfgPIO
                0x20095994                dllGet
                0x2005f200                FPGAovlySetImage0ACTHorizontalStart
                0x2012a0cc                taskUndelay
                0x2012de4c                semEvStop
                0x200f5648                strcspn
                0x20073358                ProcessCloseWnd
                0x200a0334                __gesf2
                0x2010c920                timexPre
                0x20120598                wdbEventPost
                0x201316a0                _setjmpSetup
                0x20050434                VOS_TakeSem
                0x20009cc0                sysToMonitor
                0x2007f40c                JpegCalculateTabs
                0x200fbc88                ioFullFileNameGet
                0x2010f218                chkdsk
                0x20002898                AT91F_PIO_IsCfgPullupStatusSet
                0x20002630                AT91F_PIO_GetInterruptStatus
                0x20128948                taskOptionsGet
                0x200513d8                CTimer::GetTaskID(void)
                0x20016f80                BSP_AT91F_OR_PIO_ClearOutput
                0x20063fb0                C751SetField1MemoryWriteStartAddress
                0x200986d4                asin
                0x200f166c                setlocale
                0x200f9764                scanCharSet
                0x2000c990                wdbExternEnterHook
                0x2010f624                dirList
                0x2000e26c                usrInit
                0x200cdddc                getpeername
                0x2009652c                intIntRtnNonPreempt
                0x200a05d4                _f_ftoi
                0x200450a8                CMailBoxMap::Instance(void)
                0x20069e08                ScalOpenChannel
                0x20125004                eventClear
                0x200cd0a8                mRouteEntryDelete
                0x20016208                getTemperatureValue
                0x2005c8e0                DeserCleanChannel
                0x2005cf1c                FPGAdesSetImage1HorizontalStart
                0x200cbb80                pingLibInit
                0x2003e740                CDataPackage::GetDestinationBD(unsigned char &) const
                0x200f3560                scanf
                0x20011778                LedRunStateChg
                0x200f70b4                cacheDrvInvalidate
                0x200334f0                EventRspCmdToNs(VWAS_CMD_S *, unsigned long, unsigned long)
                0x200f5c4c                ctime_r
                0x20123110                wdbDbgTrap
                0x20019024                testioRd
                0x200926a0                __user_type_info::contained_public_p(__user_type_info::sub_kind)
                0x20112b8c                qDelete
                0x200616b0                C751SetOutputPortOAOI2HorizontalStart
                0x2000e3e0                usrNetworkInit
                0x2000cab0                wdbTgtHasAltivec
                0x20060954                C751WriteN1BitPixels
                0x20035bf8                DW2W
                0x200ea340                dosFsVolUnmount
                0x201317b0                qJobCreate
                0x20003360                AT91F_UDP_EpSet
                0x2012dcd0                semEvStart
                0x2010ed24                dosFsDevInit
                0x2002c604                CfgMgr::RspCmdToTrueMainCtrl(BD_CMD_S *, unsigned long)
                0x2005cb94                FPGAdesGetInterruptStatus
                0x2010bb28                spyClkStopCommon
                0x2010af48                shellLogoutInstall
                0x200617a0                C751SetOutputPortOAOI2VerticalStart
                0x20092f4c                __rtti_ptr
                0x2000d26c                wdbSysModeInit
                0x200e3614                dcacheUpd
                0x2006f1ac                SPCSetDesktop
                0x200dd308                tcp_usrreq
                0x200144d4                BSP_BoardSolt
                0x2000b3f8                usrNetmaskGet
                0x20039864                CSoftUpGrade virtual table
                0x2009b330                scalbn
                0x200b8ad8                udp_usrreq
                0x20104030                taskSwapHookDetach
                0x20113b08                ledClose
                0x2010cfec                sp
                0x2006d6f0                Sp12GetC751VerticalCompensation
                0x2010eee8                cd
                0x20126f60                semCCreate
                0x2010e6b8                printErrno
                0x2012e594                r11
                0x2010656c                s
                0x200645c8                C751GetChannel1InputHorizontalSyncFrequency
                0x200e03cc                srandom
                0x2010e8b8                h
                0x20093ca4                long double type_info function
                0x2000f2f0                urgencySendTest
                0x2010ee0c                dosFsMkfs
                0x2012e094                cplusXtorSet
                0x20003680                AT91F_SSC0_CfgPMC
                0x20061e60                C751SetOutputPortACTVerticalStart
                0x200ce9cc                telnetdStart
                0x200fdc0c                cfree
                0x20112748                lstNth
                0x2000aa54                usrBootLineParse
                0x200dccc4                tcp_ctloutput
                0x20043e70                CAppInterface::DeleteMailBox(unsigned short)
                0x20112be4                qGet
                0x20090d14                __throw_bad_typeid
                0x2004af60                CModule::GetMailBox(void) const
                0x20100a14                selWakeupListLen
                0x2000f3b0                MAILBOX_CFG_NS
                0x2005e980                FPGAovlySetImage2VerticalStart
                0x2005bdc4                DeserOpenChannel
                0x200976b8                semBTake
                0x2008fc70                __malloc_alloc_template<0>::reallocate(void *, unsigned long, unsigned long)
                0x200c1dd4                ifAddrAdd
                0x200910c4                exception::exception(void)
                0x2004ad8c                DebugOut
                0x200a09e4                __funder
                0x2011f734                wdbSvcDsaSvcRemove
                0x200ac488                check_trailer
                0x20127cfc                semMGiveForce
                0x2004bea8                CModuleManager::ModuleLoaded(unsigned short)
                0x2011c4c8                flFormat
                0x20002fc4                AT91F_AIC_Trig
                0x200e0898                cbioParamsGet
                0x2004b1b0                CModule::SystemMessage(CSystemMessage &)
                0x200601f4                C751GetCh1MainControl
                0x20128350                semShowInit
                0x20104810                tyMonitorTrapSet
                0x2012b7f8                wdInit
                0x20076064                ProcessConfigError
                0x200603ac                C751SetMemControl
                0x200f45d8                ldiv
                0x20016e78                BSP_AT91F_OR_PIO_GetInput
                0x20100f5c                sigismember
                0x20078f00                WndInsert
                0x2010ebe4                dosFsInit
                0x20044b80                CLinkNode::AddErrorTimes(void)
                0x200cced8                mPrivRouteEntryAdd
                0x2012fe60                dsmInst
                0x2005d7a0                FPGAovlyWriteBackground1BitPixel
                0x200d1f18                ifIndexLibInit
                0x20010d24                BSP_ResetFpga
                0x20017478                BSP_AT91F_PIO_IsAB_RegisterSet
                0x20092600                __user_type_info::__user_type_info(char const *)
                0x2003ddb4                CCtrlPackage::GetSourceBD(unsigned char &) const
                0x2004ae5c                CModule::CModule(unsigned short, unsigned short, long (*)(unsigned long), unsigned long, long (*)(unsigned long), unsigned long, unsigned short)
                0x20096824                intVecTableWriteProtect
                0x200ace58                in_canforward
                0x20006ffc                at91EthPollStop
                0x201139c0                iosFdShow
                0x200a2ed8                __DIAB_wr_sw_fl
                0x200027dc                AT91F_PIO_OutputWriteDisable
                0x200fd628                valloc
                0x2000b2fc                usrDhcpcLeaseClean
                0x200acb08                netTypeAdd
                0x200a2d90                _fp_round
                0x2012e54c                r2
                0x20032cd8                CAlarmTcpSocket::taskAccept(void *)
                0x2008fe08                cplusArraysInit
                0x2005d3a4                FPGAovlyReset
                0x20093e84                float type_info function
                0x200a2ac0                _f_cmp
                0x200a3cf8                __ult64
                0x200b5200                rtioctl
                0x200f1f1c                fputc
                0x2000cad4                wdbTgtHasAltivecSet
                0x2000caf4                wdbTgtHasDsp
                0x200a17fc                _f_lltof
                0x200498ac                CPackageCounter::AddRcvCtrlPackages(void)
                0x200676d8                OvlyHideWnd
                0x20001eb4                AT91F_SPI_GetInterruptMaskStatus
                0x20013d10                BSPBooter
                0x200fc18c                ioDefDevGet
                0x200507b4                VOS_ConnectClk
                0x200a1b58                cacheArm920tIClearDisable
                0x2005eca0                FPGAovlySetDesktopHorizontalStart
                0x200a17f4                _f_ulltof
                0x200a17f4                _ll_uto_f
                0x200038c4                AT91F_TWI_CfgPMC
                0x2005cd94                FPGAdesImage2SelectSerdes
                0x20014988                I2cData
                0x200c48ec                muxDevExists
                0x20033490                AlarmRspCmdToNs(VWAS_CMD_S *, unsigned long, unsigned long)
                0x2012c0cc                windSpawn
                0x200a10d4                _d_utod
                0x2009ed5c                _deq
                0x20060fdc                C751EnableInterrupt
                0x20062f34                C751FillInput
                0x200bfef4                ftpDataConnGet
                0x20131760                qJobInit
                0x200d1930                netTupleGet
                0x20076d60                SPCMailboxInit
                0x20035bb8                DW2BY
                0x20095a60                excIntHandle
                0x200b30a8                rn_refines
                0x200e0608                cbioDevVerify
                0x2005df1c                FPGAovlyReadBackgroundData
                0x20128c08                taskSuspend
                0x2002b108                CfgMgr::SetManInfo(BD_CMD_S *, unsigned long)
                0x2010d0f8                period
                0x2010a60c                moduleIdListGet
                0x20003768                AT91F_TC2_CfgPMC
                0x20103cbc                taskDeleteHookAdd
                0x20091308                operator new(unsigned long, void *)
                0x200ddb78                sobind
                0x20060864                C751GetCpuData
                0x20017028                BSP_AT91F_PIO_Disable
                0x200cf460                tftpInit
                0x20065698                OvlyPowerOn
                0x20102fd4                symFindSymbol
                0x200979d0                vxMemProbeSup
                0x200c4f8c                muxPollStart
                0x2008fca4                __set_malloc_handler__t23__malloc_alloc_template1i0PFv_v
                0x200600e8                C751GetBankRegister
                0x200cf6a0                tftpInfoShow
                0x2002c374                CfgMgr::RspCmdToMainCtrl(BD_CMD_S *, unsigned long)
                0x20092750                __si_type_info type_info function
                0x200aced0                in_socktrim
                0x200b690c                rtalloc
                0x20113550                sllRemove
                0x2000d48c                wdbTaskModeInit
                0x2005adb4                CVPNode::GetListener(void) const
                0x2000e7c4                UrgencyShow
                0x200443f0                CAppInterface::GetLocalBoardType(void)
                0x200b4860                rn_destroyhead
                0x20050258                VOS_SuspendSelf
                0x200a0e40                _drsb
                0x20109a24                loadCommonMatch
                0x2000bd98                usrClock
                0x200cdccc                getsockopt
                0x20060030                C751SetBasicAddress
                0x200133d4                FlashWriteTest
                0x200720d4                SPCTestCircle
                0x2006dfd8                SPCInit
                0x20049aa0                CPackageCounter::AddSendOKTimes(void)
                0x2004ca4c                CModuleManager::ModuleChecker(void)
                0x200f5f04                localtime_r
                0x2011eae8                wdbModeSet
                0x2001281c                BSP_NandFlashFileRead_L
                0x20112738                lstLast
                0x200a00e4                __fpl_exception
                0x200cb73c                arpShow
                0x200fcf54                logMsg
                0x20017c2c                load_fpga_ALTERA
                0x200d1248                netPoolInit
                0x2010d488                show
                0x2005118c                CTimer::CTimer(unsigned long, long, unsigned long, unsigned long)
                0x2005ef4c                FPGAovlySetHorizontalEnd
                0x2005cfc4                FPGAdesSetImage1VerticalEnd
                0x2011d208                tffsDiskChangeAnnounce
                0x200a4784                looutput
                0x200ad24c                in_iaonnetof
                0x201236f0                xdr_WDB_CTX_CREATE_DESC
                0x2004e7c4                starttcp
                0x20128a9c                taskIdDefault
                0x200ba268                soisdisconnected
                0x201230b8                wdbDbgBpRemove
                0x20061458                C751SetOutputPortOAOI0VerticalEnd
                0x200ca134                netDrvDebugLevelSet
                0x200026b0                AT91F_PIO_MultiDriverEnable
                0x200f6cb4                strftime
                0x20107be8                loadElfInit
                0x200598e4                __builtin_vec_delete
                0x200fd3c8                logShow
                0x200f1660                localeconv
                0x20036444                CSoftUpGrade::TUpgrade_CancelTask(void *)
                0x2004c8ac                CModuleManager::SendStartupMessageToServer(void)
                0x20130cbc                sllPutAtHead
                0x200de65c                soclose
                0x200619f8                C751SetOutputPortOAOI3VerticalEnd
                0x2012d3c8                windDelete
                0x2012c548                windPriNormalSet
                0x2011ec88                wdbResumeSystem
                0x20041d50                CPackage::CPackage(S_MESSAGE &)
                0x20002a98                AT91F_US_DisableIt
                0x2000f3b4                MAILBOX_CFG_BS
                0x20010b8c                BSP_GetManInfo
                0x2005d768                FPGAovlySetBackgroundEndY
                0x200c49bc                muxError
                0x2000a478                flFitInSocketWindow
                0x200f7868                stat
                0x2004f374                start485test
                0x20125310                kernelTimeSlice
                0x2010e668                pc
                0x20038d7c                CSoftUpGrade::ReportWriteFlashProgress(unsigned long *, unsigned long *)
                0x2005cbcc                FPGAdesClearInterruptStatus
                0x200f1580                isdigit
                0x20033b64                taskDebugSocket
                0x20049af0                CPackageCounter::AddSendCtrlPackages(void)
                0x20001f5c                AT91F_TC_IsInterruptMasked
                0x2005ed10                FPGAovlySetDesktopVerticalStart
                0x200c2234                ifMetricSet
                0x200035d8                AT91F_RTC_CfgPMC
                0x2003e0ec                CCtrlPackage virtual table
                0x200439d8                CSocketNode type_info function
                0x20113538                sllDelete
                0x201265ac                msgQShow
                0x200cb7b4                hostShow
                0x200b9e84                soqinsque
                0x200b70bc                udp_input
                0x200b3050                rn_search_m
                0x201239d8                xdr_WDB_EVT_DATA
                0x20050d20                CPeriodicTimer type_info function
                0x200f2bbc                fwrite
                0x200e3e94                dosChkLibInit
                0x20051268                CTimer::GetSteps(unsigned char)
                0x2005ceac                FPGAdesSetImage0VerticalStart
                0x20091b0c                __si_type_info::do_find_public_subobj(int, type_info const &, void *, void *) const
                0x200ca350                netDrvFileDoesNotExistInstall
                0x20105c50                dbgHelp
                0x200979ac                semOTake
                0x20049924                CPackageCounter::GetRcvNormalPackages(void) const
                0x200ba1c0                sowakeup
                0x200171e0                BSP_AT91F_PIO_IsInputFilterSet
                0x200c26c8                ifAllRoutesDelete
                0x200022cc                AT91F_PIO_CfgInput
                0x2002dc30                MC_EventReport
                0x200f3b10                __stdout
                0x20127b68                semMInit
                0x2006ed84                SPCShowConfigure
                0x2003b16c                global destructors keyed to CSoftUpGrade::m_pUpgrade
                0x20036748                CSoftUpGrade::ReceiveNsCancelMsg(void)
                0x200a1c10                excEnterSwi
                0x200d3014                in_cksum
                0x201097b0                loadSegmentsAllocate
                0x2011f370                wdbRpcGetArgs
                0x2005d4f8                FPGAovlyGetInterruptStatus
                0x20103dfc                taskDeleteHookDelete
                0x20112ffc                qPriListPut
                0x200def0c                sogetopt
                0x201035bc                symEach
                0x20009c3c                sysPhysMemTop
                0x20003b64                sysClkConnect
                0x200b9318                domaininit
                0x200cc684                bindresvport
                0x200cf398                telnetInTask
                0x20081b58                JpegFreeData
                0x200e2ee0                dcacheDevTune
                0x200fb5c8                hashTblPut
                0x20042184                CPackage::SetSequenceNumber(unsigned short)
                0x200025f4                AT91F_PIO_InterruptDisable
                0x200bfa4c                ftpDataConnInit
                0x200ca64c                netErrnoSet
                0x20090020                __get_dynamic_handler_chain
                0x200a0684                _f_ftoll
                0x2003b67c                CProcAlarm::ProcFpgaStatus(void)
                0x20068e08                OvlySetTestTessellation
                0x200fc384                iosFdDevFind
                0x20028d70                SpiWriteByte
                0x200a1880                _f_mul
                0x20017560                BSP_AT91F_PIO_GetCfgPullup
                0x20103bd4                taskHookInit
                0x2005fa78                FPGAovlySetDesktopAdjustmentVerticalEnd
                0x2005d4c0                FPGAovlyGetHardwareID
                0x200a374c                __udiv64
                0x200172e0                BSP_AT91F_PIO_IsInterruptMasked
                0x20063894                C751SetField0MemoryReadStartAddress
                0x200cd1c0                mPrivRouteEntryDelete
                0x20016d00                BSP_AT91F_OR_PIO_CfgInput
                0x2005fe68                ICS307WriteData
                0x200fc1c4                ioDefDirGet
                0x2009ed84                _d_fgt
                0x2009ed84                _dgr
                0x200087dc                at91EthSend2
                0x200cd894                connectWithTimeout
                0x201049e0                tyRead
                0x200f3498                rewind
                0x2000f3b2                MAILBOX_CFG_BLK_BS
                0x20028f94                Spi0Test
                0x20113984                iosDevShow
                0x2000f3be                MAILBOX_DEBUG
                0x20029ac0                CfgMgr::TCfgMgr_RecTask(void *)
                0x200523f0                CTimerManager::~CTimerManager(void)
                0x20001cb8                AT91F_SPI_Reset
                0x20064a88                C751Init
                0x20116b74                yystart
                0x2005f6e4                FPGAovlySetImage2ACTVerticalEnd
                0x2010a0d4                moduleCreateHookAdd
                0x200f215c                freopen
                0x2004215c                CPackage::PostSend(void)
                0x200961f8                intEnt
                0x2010e8f4                spyTask
                0x2009033c                __cp_eh_info
                0x2012e804                armGetNpc
                0x200bd970                ipMuxCookieGet
                0x2011289c                qFifoInit
                0x200ea1dc                dosSetVolCaseSens
                0x200fa2c0                floatInit
                0x20040c88                CKeepAlivePackage::CKeepAlivePackage(void)
                0x2011d574                flRandByte
                0x20017500                BSP_AT91F_PIO_GetOutputWriteStatus
                0x20038690                CSoftUpGrade::GetSoftFromList(void)
                0x20036b84                CSoftUpGrade::ProcProtocalVer1(unsigned char *)
                0x200f7fb4                errnoOfTaskSet
                0x200662a4                OvlyOpenWnd
                0x20062040                C751FillOutput
                0x200f71cc                classCreate
                0x20104350                taskVarSet
                0x200f9424                fdprintf
                0x200a33f8                __urem32
                0x200bad20                sbflush
                0x2010a13c                moduleCreateHookDelete
                0x20044b30                CLinkNode::ResetDumbTimes(void)
                0x20120554                wdbEventLibInit
                0x2006c168                Sp12SetMode
                0x200c4f70                muxTaskPriorityGet
                0x200287a4                SetSi5326Reg
                0x20016de0                BSP_AT91F_PIO_CfgPullupDisable
                0x20002404                AT91F_PIO_ForceOutput
                0x2009f6a0                _d_dtou
                0x20110e28                uswab
                0x200cd3c0                routeAgeSet
                0x2004aee0                CModule::~CModule(void)
                0x201271d4                semLibInit
                0x20042108                CPackage::AddSendCounter(CPackageCounter &) const
                0x20001cf0                AT91F_SPI_Disable
                0x2013254c                xdr_float
                0x2009f7c8                _d_dtoull
                0x200dfc0c                sosend
                0x200b487c                rn_init
                0x20130750                fppProbe
                0x2004f004                commtest
                0x2008f9b8                __malloc_alloc_template<0>::allocate(unsigned long)
                0x2000eff4                UrgencyStop
                0x2011d43c                flCreateMutex
                0x20072530                SPCTestGrey
                0x20067040                OvlyCloseWnd
                0x200bf7b4                ftpHookup
                0x20123cd0                xdr_WDB_REG_READ_DESC
                0x200a3f70                endFlagsGet
                0x2000fb5c                BSP_GetSysSoftVer
                0x200d1d44                netMblkOffsetToBufCopy
                0x200592c0                COfflineSystemMessage::GetDataLength(void) const
                0x200b3840                rn_lookup
                0x200f3838                __swrite
                0x20001c9c                AT91F_SPI_DisableIt
                0x20095118                bfill
                0x200ce728                telnetdInit
                0x20131630                _remque
                0x200a1140                _ll_sto_d
                0x200f6d88                cacheDisable
                0x2004a234                CProtocolInterface::Dispatch(CPackage &)
                0x20002980                AT91F_US_Baudrate
                0x200a1e18                __fpl_dcmp_InfNaN
                0x2011d4a8                flSysfunInit
                0x2005e198                FPGAovlySetImage0Priority
                0x2005addc                CVPNode::GetClient(void) const
                0x20029cd8                CfgMgr::ReceiveMsg(void)
                0x200022ec                AT91F_PIO_CfgOpendrain
                0x20052490                CTimerManager::Instance(void)
                0x20081b38                JpegFreeMemory
                0x2004a904                PF_AllocateMessage
                0x20052ef8                CTimerManager::SetTimer(PF_list_node<CTimer *> *&)
                0x200a1f28                __DIAB_rd_pk_ld
                0x200a85c4                ifioctl
                0x20111d08                bootParamsShow
                0x20062200                C751SetHorizontalEnlargementControl
                0x2010f964                ls
                0x20129e88                exit
                0x200de974                socreate
                0x200d5b84                rip_init
                0x2000398c                AT91F_US1_CfgPIO
                0x2008fe50                __default_terminate
                0x2012dbe4                msgQEvStop
                0x2012eb30                armInstrChangesPc
                0x2003e9cc                CDataPackage::GetDataAddress(unsigned char *&) const
                0x200f739c                classInstrument
                0x200830f0                BitmapDecode8Bits
                0x200baf28                sonewconn1
                0x2013167c                wdbDbgTraceModeClear
                0x200f65e0                __getZoneInfo
                0x200c22fc                ifMaskSet
                0x20006c98                at91EthMulTest
                0x20001fc0                AT91F_PMC_GetProcessorClock
                0x200a3e48                __diab_unlock_mutex
                0x2000d2f0                wdbSp
                0x200438f0                CSocketNode::GetSequenceNumber(void)
                0x2004de68                CStandbySystemMessage::GetDataLength(void) const
                0x2007cd2c                SPCPrintBuf
                0x200034c0                AT91F_EBI_CfgPIO
                0x20123c98                xdr_WDB_MEM_SCAN_DESC
                0x20122d80                wdbCtxExitLibInit
                0x200518a4                CTimerIDPool::AllocateTimerID(void)
                0x2011e83c                wdbInstallRtIf
                0x200d3b90                in_pcblookuphash
                0x20112f24                qPriBMapEach
                0x200a5ee0                __modsi3
                0x200436bc                CSocketNode::GetSocket(void) const
                0x20040230                CEthnClient::InitSocket(void)
                0x2007bc5c                SPCWriteC751Image
                0x20053d48                PF_UnregisterModule
                0x200bf2f4                etherMultiGet
                0x2006411c                C751SetField2MemoryWriteStartAddress
                0x20001bcc                AT91F_SSC_GetInterruptMaskStatus
                0x20100f1c                sigdelset
                0x200f35c4                setbuf
                0x200922f0                type_info virtual table
                0x200f6f34                cacheDmaMalloc
                0x200d47ec                icmp_init
                0x2002b498                CfgMgr::GetPortInfo(BD_CMD_S *, unsigned long)
                0x20091434                __rtti_class
                0x2001648c                toBCD
                0x200961dc                intIFUnlock
                0x20110d9c                binvert
                0x2004c2f4                CModuleManager::GetModule(unsigned short)
                0x20094064                unsigned long type_info function
                0x2010a474                moduleFindByNameAndPath
                0x2004f108                startmm
                0x200931d8                __rtti_ptmf
                0x20123bb4                xdr_WDB_EVTPT_DEL_DESC
                0x200e8c7c                dosFsFatInit
                0x200c380c                muxMCastAddrDel
                0x2010afac                shellIsRemoteConnectedSet
                0x200ac1c4                ether_delmulti
                0x20015464                I2cWrite
                0x200ad0b0                in_ifaddr_remove
                0x2005d730                FPGAovlySetBackgroundEndX
                0x2005cf54                FPGAdesSetImage1HorizontalEnd
                0x20049be4                CPackageCounter::SetSendOKTimes(unsigned long)
                0x2000254c                AT91F_PIO_InputFilterDisable
                0x20009d38                sysProcNumGet
                0x2011cd00                flNeedVpp
                0x2004985c                CPackageCounter::AddRcvNormalPackages(void)
                0x2007b24c                SPCSetChCompensate
                0x2011c6c8                flIntelSize
                0x201095d4                loadModuleAt
                0x20107ba0                elfRelocRelEntryRd
                0x200ad27c                mcastHashInit
                0x20090fdc                uncaught_exception(void)
                0x20020484                sysFlashWrite16
                0x2005f8ac                FPGAovlySetImage3ACTVerticalEnd
                0x2011f3f8                wdbSvcHookAdd
                0x2011ca6c                flMediaCheck
                0x2005da6c                FPGAovlyWriteBackground8BitPixel
                0x20001c58                AT91F_SPI_CfgCs
                0x2000fa84                BSP_GetMiniSysVer
                0x20010b18                BSP_GetVoltageStatus
                0x2012d6d4                windSemDelete
                0x200d00c4                tftpGet
                0x200c348c                muxDevStop
                0x20019978                UrgencyLibInit
                0x20049b68                CPackageCounter::GetSendDataPackages(void) const
                0x200a0914                _fcmpge
                0x20130740                fppTaskRegsGet
                0x20059610                memshow
                0x2010621c                e
                0x2004aadc                PF_ReceiveUrgentFrame
                0x201123ec                bufFree
                0x200f447c                atoi
                0x20061250                C751SetPowerSave
                0x2005d28c                FPGAdesGetStatus
                0x2012353c                wdbUserEvtPost
                0x20005094                bitreverse
                0x200f1568                iscntrl
                0x2005fb68                FPGAovlySetColorkeyG
                0x201058a4                vmBaseGlobalMapInit
                0x200a8d20                if_dettach
                0x200443c4                CAppInterface::GetLocalBoardID(void)
                0x2006452c                C751SetMemoryWriteLineFeedWidth
                0x20063e44                C751SetField0MemoryWriteStartAddress
                0x20083028                BitmapDecode1Bit
                0x200d1838                netMblkGet
                0x200ff654                pathLastName
                0x2012e100                cplusCtors
                0x200ba478                sbappendaddr
                0x200405ec                CEthnClient::GetServerIP(sockaddr_in &) const
                0x20028cf0                SpiWriteBit
                0x20013538                BSP_GetFPGAStatus
                0x200bb454                hashinit
                0x2003ee50                CDataPackage type_info function
                0x20059834                __builtin_delete
                0x200f1c98                fileno
                0x200b1310                ip_getmoptions
                0x20112464                checksum
                0x200a409c                mib2Init
                0x200a5928                __moddi3
                0x2000ca04                wdbExternExitHook
                0x200630f4                C751SetHorizontalReductionControl
                0x2004e218                CStartupSystemMessage type_info function
                0x2008fa6c                __default_alloc_template<true, 0>::allocate(unsigned long)
                0x2004c3a8                CModuleManager::Standby(unsigned char)
                0x20037448                CSoftUpGrade::TransFileBegin(VWAS_CMD_S *, unsigned long)
                0x20013b40                BSPCheckSum
                0x20097440                mmuModifySoftCr
                0x2011bcb8                formatFTL
                0x20104114                taskVarInit
                0x2002d1bc                taskBdCfgMgr
                0x20113044                qPriListPutFromTail
                0x200a078c                __fixunssfsi
                0x200a91bc                arpwhohas
                0x200dca70                tcp_slowtimo
                0x200dbbc4                tcp_newtcpcb
                0x20003590                AT91F_EMAC_CfgPMC
                0x200fdf80                memPartLibInit
                0x2010961c                loadModuleGet
                0x2011e008                wdbEndPktDevInit
                0x200c1220                hostTblSearchByAddr
                0x200a56a8                __fpcmp_parts_f
                0x2004c5a0                CModuleManager::SystemMessage(CSystemMessage &)
                0x200388d8                CSoftUpGrade::FreeListMemory(void)
                0x20006fac                at91EthPollStart
                0x200610ac                C751DisableInterrupt
                0x200608b4                C751WritePixel
                0x2010ec38                dosFsMkfsOptionsSet
                0x2009681c                intVecBaseGet
                0x200690a0                OvlySetTestGrey
                0x20029188                BSP_memPartShow
                0x2006065c                C751SetOverlayControl
                0x200c239c                ifBroadcastGet
                0x20006bac                at91EthInit
                0x200a2b3c                _f_cmpe
                0x200acf08                in_lnaof
                0x200edfc8                dosFsLibInit
                0x2003d80c                CCtrlPackage::CCtrlPackage(S_MESSAGE &)
                0x2011f854                wdbTargetIsConnected
                0x2008fe58                __terminate
                0x200fb410                hashLibInit
                0x20045688                CMailBoxMap::GetTaskID(unsigned short, int &) const
                0x2000b0fc                usrNetDevNameGet
                0x2009f734                _dfixu_r
                0x20059698                __builtin_new
                0x20002204                AT91F_PMC_DisablePeriphClock
                0x200f5ed4                gmtime
                0x2000237c                AT91F_PIO_GetInput
                0x200f58e4                strspn
                0x2009edac                _d_fle
                0x2010d76c                m
                0x200a5fb4                __muldi3
                0x2002af34                CfgMgr::RestartBoard(BD_CMD_S *, unsigned long)
                0x2009fce4                _dsqrt
                0x200a1fb8                __DIAB_rd_sw_fl
                0x20082e28                SetACIndex
                0x20009fa8                flRegisterComponents
                0x20050928                VOS_AddExcHook
                0x200fb868                hashFuncModulo
                0x20049b90                CPackageCounter::GetSendCtrlPackages(void) const
                0x20103370                symByCNameFind
                0x200c12a8                hostGetByAddr
                0x200125c4                BSP_NandFlashIDGet
                0x2005cad0                FPGAdesEnableInterrupt
                0x20096658                intLevelSet
                0x2007b074                SPCGetVersion
                0x20050a88                VOS_Display
                0x20039000                CSoftUpGrade::GetTime(unsigned long &)
                0x2010dc80                lkup
                0x2004f1d8                ktimer
                0x20092a70                __throw_type_match_rtti_2
                0x20002f54                AT91F_AIC_SetExceptionVector
                0x20050e8c                CRelativeTimer::CRelativeTimer(unsigned long, long, unsigned long, unsigned long)
                0x200cded4                sockFdtosockFunc
                0x200ea244                dosFsVolDescGet
                0x200fcc1c                iosInit
                0x2008f414                __default_alloc_template<true, 0>::_S_refill(unsigned long)
                0x2011cad8                flGetMappingContext
                0x200bda80                bsdSocket
                0x200f5790                strlen
                0x200c0d90                ftpLs
                0x20041f64                CPackage::GetSequenceNumber(unsigned long &) const
                0x200a1c5c                excEnterPrefetchAbort
                0x200500e8                VOS_DeleteTask
                0x20031374                CTcpSocket::SendMsgToMailBox(unsigned char *, unsigned long, int, unsigned long)
                0x200a3af0                __eq64
                0x200036e4                AT91F_SPI_CfgPIO
                0x200503ec                VOS_DeleteSem
                0x200c3308                muxLibInit
                0x200fbfb0                open
                0x20101238                sigpending
                0x200a9954                arp_rtrequest
                0x2005ff98                ICS307SetFrequency
                0x2005af2c                CVPNode::SendVPData(void)
                0x20074aa4                ProcessSetWindowCompensation
                0x200b6f98                udp_init
                0x2010ec48                dosFsConfigInit
                0x200a1138                _d_ulltod
                0x2004dbb0                CRebootSystemMessage virtual table
                0x200f1650                toupper
                0x200a3e70                __diab_unlock_semaphore
                0x200ba248                socantsendmore
                0x200f70e8                cacheDrvVirtToPhys
                0x2004b354                CModule virtual table
                0x2010e1c0                mRegs
                0x20003248                AT91F_UDP_EpWrite
                0x2009f390                _dcmpeq
                0x200cad20                ipstatShow
                0x2009edd4                __gedf2
                0x200ac7f8                ether_input
                0x200fb914                intContext
                0x2010ea1c                spyHelp
                0x200a98e8                ipEtherResolvRtn
                0x20123318                wdbCtxStartLibInit
                0x20016e40                BSP_AT91F_PIO_CfgInputFilter
                0x2003c680                CProcAlarm virtual table
                0x200a9db4                arpioctl
                0x200f9100                vfdprintf
                0x200fb898                hashFuncMultiply
                0x200a40f0                mib2ErrorAdd
                0x201124c8                dllInit
                0x200421b4                CPackage virtual table
                0x200a8010                if_slowtimo
                0x2000a8fc                checkInetAddrField
                0x20100848                selWakeupAll
                0x2012cf4c                windTickAnnounce
                0x20064490                C751GetMemoryReadLineFeedWidth
                0x2008f9a8                __default_alloc_template<true, 0>::_S_freelist_index(unsigned long)
                0x2010d588                ti
                0x2011e430                wdbNptShutdown
                0x20049c3c                CPackageCounter::SetSendCtrlPackages(unsigned long)
                0x200f5c44                clock
                0x20126e24                semCLibInit
                0x200f2ed0                getw
                0x200a3088                __lsl64
                0x200a19a4                __fpl_normalise2
                0x200980b4                windIntStackSet
                0x200d0654                tftpTask
                0x200a0b50                __fpl_return_NaN
                0x20094244                unsigned short type_info function
                0x200a3ba0                __le64
                0x200f1518                __assert
                0x20093704                long type_info function
                0x201209cc                wdbGopherLibInit
                0x20010104                BSP_LoadFpga
                0x20002eb8                AT91F_AIC_EnableIt
                0x2005e27c                FPGAovlySetImage2Priority
                0x2012e59c                r12
                0x200c400c                muxPacketAddrGet
                0x20001f8c                AT91F_CKGR_GetMainClock
                0x20079a04                SPCConfigTest
                0x20003844                AT91F_PIOD_CfgPMC
                0x200f4548                div
                0x2007b5c0                SPCWriteBackground
                0x200926d8                __user_type_info::find_public_subobj(int, type_info const &, void *, void *) const
                0x20028648                InitSi5326
                0x200f4458                abs
                0x2008fcbc                global constructors keyed to __default_alloc_template<true, 0>::_S_end_free
                0x20014e28                I2cClkCycles
                0x2009eb78                _dneg
                0x200a078c                _ffixu
                0x200f5474                strchr
                0x200a02e4                _fgr
                0x20004200                BSP_TimeGet
                0x200c30b0                ipLibInit
                0x200f3358                __srefill
                0x20002f14                AT91F_AIC_ClearIt
                0x2009740c                mmuSoftCrGet
                0x20130758                fppSave
                0x200c16dc                icmpMaskGet
                0x2005d358                FPGAovlySetBasicAddress
                0x201231d4                wdbEvtptClassConnect
                0x200b9e70                soisconnecting
                0x200f1fd0                fputs
                0x2002f988                global constructors keyed to MC_AlarmReport
                0x200025b8                AT91F_PIO_GetOutputDataStatus
                0x2009ed98                _d_fge
                0x200b0d38                ip_pcbopts
                0x20100a1c                selWakeupType
                0x200034e4                AT91F_DBGU_CfgPMC
                0x20112c24                qResort
                0x2005e9f4                FPGAovlySetImage2HorizontalEnd
                0x200c5388                muxPollDevAdd
                0x2010e754                td
                0x20052638                CTimerManager::WDCallBack(long)
                0x200d18b0                netClusterGet
                0x200512e4                CTimer::Tick(void)
                0x200a1b88                cacheArm920tArchPipeFlush
                0x20069cd4                ScalInitChannel
                0x2012ada0                taskInfoGet
                0x2003ebe4                CDataPackage::SetSequenceNumber(unsigned short)
                0x201306e8                ffsLsb
                0x200d456c                in_pcbconnect
                0x200cf594                tftpPeerSet
                0x20001b38                AT91F_SSC_DisableIt
                0x20029f88                CfgMgr::ProcTimer(void)
                0x200f77a0                closedir
                0x200615c0                C751SetOutputPortOAOI1VerticalStart
                0x200bf0b0                bsdZbufSockRtn
                0x20098240                acos
                0x20043d64                CAppInterface::CAppInterface(CAppInterface const &)
                0x200602a8                C751SetTransferControl
                0x2005fdec                ICS307Init
                0x200fc3f8                iosFdFree
                0x2003d2c0                C485Client::tKeepAlive(void *)
                0x200d3f10                in_pcbdisconnect
                0x2003e420                CDataPackage::CDataPackage(S_MESSAGE &)
                0x2012e254                _dbgInstSizeGet
                0x200b3a44                rn_addroute
                0x200361dc                CSoftUpGrade::Init(void)
                0x201308e4                semCGive
                0x20097a40                mmuReadId
                0x200ab25c                db_print_sa
                0x2011a64c                flDosFormat
                0x200021e8                AT91F_PMC_EnablePeriphClock
                0x200f6fa0                cacheFuncsSet
                0x2011f54c                wdbSvcDispatch
                0x20124ad0                eventSend
                0x200a10e0                _d_itod
                0x2007a670                SPCGetChParam
                0x2003f5a4                CEthnClient::Instance(void)
                0x20042024                CPackage::GetDataLength(unsigned short &) const
                0x2004de40                CStandbySystemMessage::GetSubMessageID(void) const
                0x200a056c                _fcmpeq
                0x200a3fd4                endObjectUnload
                0x20085968                cplus_demangle_set_style
                0x2009f7c8                _ll_ufrom_d
                0x200612f0                C751SetOutputPortOAOI0HorizontalStart
                0x201059f0                vmBaseStateSet
                0x20009fd0                tffsShowAll
                0x2000704c                at91EthRbdFree
                0x200a0e84                __subdf3
                0x20036910                CSoftUpGrade::ProcTimer(void)
                0x200c54fc                muxTkDrvCheck
                0x200cdbcc                recvmsg
                0x20062ad8                C751SetInputPortACTHorizontalStart
                0x20002950                AT91F_TWI_IsInterruptMasked
                0x2003f540                CEthnClient::~CEthnClient(void)
                0x2010aaf8                shellParserControl
                0x20112930                qFifoInfo
                0x2009edec                _drdiv
                0x20095a48                excIntConnect
                0x200bb20c                splSemInit
                0x200612a0                C751SetPodOutputMode
                0x200f6ef4                cacheTextUpdate
                0x200fb958                intCount
                0x200a29d8                sfpDoubleSetup
                0x20113444                rngIsEmpty
                0x2012301c                wdbDbgBpFind
                0x2005ee68                FPGAovlySetHorizontalStart
                0x20061b90                C751SetPoclkPllControl
                0x2001347c                FlashPageRTest
                0x2010ec7c                dosFsDateTimeInstall
                0x2003c79c                C485Client::C485Client(void)
                0x201307e4                qPriBMapRemove
                0x20104d08                tyIoctl
                0x20127878                semQFlush
                0x200ba818                sbcompress
                0x200d1a44                netClPoolIdGet
                0x20002458                AT91F_PIO_GetStatus
                0x20132548                xdr_floatInclude
                0x200a0248                _f_ftod
                0x201007f0                selWakeup
                0x2004dc94                CStandbySystemMessage::CStandbySystemMessage(unsigned short)
                0x200b4784                rn_inithead
                0x2005ce3c                FPGAdesGetImage0HorizontalStart
                0x200446ec                CAppInterface::operator=(CAppInterface &)
                0x2011fc78                wdbMemCoreLibInit
                0x2009d8a8                __kernel_tan
                0x200cfe98                tftpPut
                0x200a078c                _f_ftou
                0x200dbeb8                tcp_drop
                0x20092570                bad_typeid::~bad_typeid(void)
                0x200b97ec                m_prepend
                0x200fc0fc                getwd
                0x200ad2f4                mcastHashTblDelete
                0x200d3e98                in_pcbrehash
                0x200d6eb0                soo_unselect
                0x200a3e60                __diab_lock_semaphore
                0x2010a190                moduleFindByName
                0x2004b378                CModule type_info function
                0x20041328                CKeepAlivePackage type_info function
                0x200a1dc8                __rt_fp_status_addr
                0x20062650                C751LoadHorizontalZoomLookupTable
                0x2010efd4                mkdir
                0x200dc6e4                tcp_timers
                0x200108d0                BSP_GetCurSysDateTime
                0x200fcb18                iosDevFind
                0x20101a6c                sigsetmask
                0x2003e7f8                CDataPackage::GetVersion(unsigned char &) const
                0x200b1938                ip_freemoptions
                0x20017588                BSP_AT91F_PIO_IsOutputDataStatusSet
                0x20059cf4                CVideoPreview::~CVideoPreview(void)
                0x20063788                C751LoadVerticalShrinkLookupTable
                0x200df194                sohasoutofband
                0x20002b14                AT91F_US_EnableRx
                0x2005136c                CTimer virtual table
                0x20032afc                CAlarmTcpSocket::GetInstance(void)
                0x2012e564                r5
                0x200911d4                bad_exception::~bad_exception(void)
                0x20017450                BSP_AT91F_PIO_Get_AB_RegisterStatus
                0x200ff140                objCoreInit
                0x20101dec                sigwait
                0x20112c84                qKey
                0x200d7bc4                tcp_input
                0x200ff0c8                objAlloc
                0x200fb650                hashTblFind
                0x2008f2a8                __default_alloc_template<true, 0>::_S_chunk_alloc(unsigned long, int &)
                0x200e0a38                cbioModeGet
                0x200c23d8                ifAddrSet
                0x200aeeb0                iptime
                0x200d5c40                rip_input
                0x20129f10                taskTerminate
                0x2000cb60                wdbRtInfoGet
                0x200f6dbc                cacheLock
                0x200b85ac                udp_ctlinput
                0x2010c818                timexShow
                0x2009a8a0                frexp
                0x200fb96c                close
                0x2004b144                CModule::ModuleLoaded(void)
                0x200aedb0                ip_freef
                0x200a1490                __addsf3
                0x20112a78                qCreate
                0x201277c4                semQInit
                0x2005ab7c                GetPreviewData(unsigned char, unsigned char *)
                0x2012fe98                dsmNbytes
                0x20071d74                SPCTestWhite
                0x201236b8                xdr_WDB_CTX
                0x20014798                sysNvRamSet
                0x20002a60                AT91F_US_SetTimeguard
                0x2009ed98                _dgeq
                0x200015d0                AT91F_PDC_DisableRx
                0x200325f0                CCfgTcpSocket::taskRecv(void *, unsigned long)
                0x20009b94                sysHwInit
                0x20014a58                I2cReadBit
                0x20090370                __eh_alloc
                0x20045b4c                tagMailBoxNode::tagMailBoxNode(unsigned short, msg_q *, int, unsigned long)
                0x200a8f80                ipToEtherMCastMap
                0x200f9f4c                fioScanV
                0x20010cd8                BSP_CpuUsage
                0x2010d148                taskIdFigure
                0x200c3220                rawLibInit
                0x20036d70                CSoftUpGrade::ProcProtocalVer2(unsigned char *)
                0x20033988                taskAlarmSocket
                0x20041ac4                COnLinePackage type_info function
                0x200b9ba0                m_devget
                0x200f4644                mbtowc
                0x20002fe8                AT91F_AIC_IsActive
                0x20032d08                CDebugTcpSocket::CDebugTcpSocket(void)
                0x20093454                __dynamic_cast
                0x200f3b68                stdioFp
                0x20002708                AT91F_PIO_IsMultiDriverSet
                0x2003eda8                CDataPackage virtual table
                0x200a32b8                __diab_intrinsics_implInit
                0x20063b6c                C751SetField2MemoryReadStartAddress
                0x200a53a8                __pack_d
                0x2012d57c                windPendQTerminate
                0x200d1a14                netMblkClJoin
                0x200fb478                hashTblInit
                0x2007ccf4                SPCSprintf
                0x200d6f94                soo_ioctl
                0x2010ae6c                shellScriptAbort
                0x200f41b0                vfprintf
                0x200fe240                memPartFree
                0x2011ef84                wdbRpcXportInit
                0x2007aef8                SPCReadByte
                0x20003a50                AT91F_AIC_CfgPMC
                0x200acc40                netTypeInit
                0x20007480                at91EthSend
                0x200f5880                strpbrk
                0x200bef0c                bsdConnectWithTimeout
                0x200b9fd4                sbwait
                0x20131f9c                xdr_int
                0x20062428                C751SetVerticalEnlargementControl
                0x20100968                selNodeDelete
                0x2012e544                r1
                0x20053f18                PF_Standby
                0x200316f4                CTcpSocket::RspCmdToNs(VWAS_CMD_S *, unsigned long, unsigned long)
                0x20097548                semEvRsrcSend
                0x2008fd34                cplusCallNewHandler(void)
                0x20101834                sigsuspend
                0x2006fb20                SPCSetColorkey
                0x20084444                cplusCtorsLink
                0x20043d48                CAppInterface::CAppInterface(void)
                0x200cd328                rtrequestAddEqui
                0x20102570                raise
                0x2012bbe4                wdDelete
                0x200cce2c                routeNetAdd
                0x2005f83c                FPGAovlySetImage3ACTHorizontalEnd
                0x200ba98c                sbinsertoob
                0x20002c14                AT91F_US_TxReady
                0x200529bc                CTimerManager::SetTimer(long, unsigned long, unsigned char, unsigned long)
                0x200fc114                ioDefPathCat
                0x200fe9b8                free
                0x2006aa1c                ScalResumeChannel
                0x200bff38                ftpTransientConfigSet
                0x2012e1b4                cplusDtors
                0x20102c6c                symAlloc
                0x2012e5a4                r13
                0x200d0a18                udpLibInit
                0x2012440c                xdrCksum
                0x20001ae4                AT91F_SSC_EnableTx
                0x20010ae4                BSP_GetTemperatureVal
                0x200918ec                __user_type_info::do_upcast(__user_type_info::sub_kind, type_info const &, void *, __user_type_info::upcast_result &) const
                0x20131fa0                xdr_u_short
                0x200a1608                _fsub
                0x2006d360                Sp12GetVerticalTatal
                0x201029fc                symLibInit
                0x20101588                sigprocmask
                0x20105b70                vmBasePageSizeGet
                0x2011321c                rngDelete
                0x201238e8                xdr_WDB_EVT_INFO
                0x2000f998                BSP_GetBootromVer
                0x200b9054                pffindproto
                0x20097b54                vxMemProbe
                0x200cdd5c                getsockname
                0x2012b6f4                tickGet
                0x200c52e8                muxPollDevStat
                0x20007130                at91EthTbdGet
                0x20128fa4                taskPrioritySet
                0x2004379c                CSocketNode::SetBoardType(unsigned char)
                0x2000225c                AT91F_PMC_DisablePCK
                0x20081cc4                JpegIDCT
                0x20006cfc                at91EthMCastAdd
 .text          0x201328e8    0x14cfc symTbl.o
 *(.text.*)
 *(.stub)
 *(.gnu.warning)
 *(.gnu.linkonce.t*)
 *(.init)
 *(.fini)
 *(.glue_7t)
 *(.glue_7)
 *(.rdata)
 *(.mips16.fn.*)
 *(.mips16.call.*)
 *(.reginfo)
 *(.rodata)
 *(.rodata.*)
 *(.gnu.linkonce.r*)
 *(.rodata1)
 *(.sdata2)
 *(.sbss2)
 *fill*         0x201475e4        0xc
                0x201475f0                .=ALIGN(0x10)
                0x201475f0                .=ALIGN(0x10)
                0x201475f0                wrs_kernel_text_end=.
                0x201475f0                _wrs_kernel_text_end=.
                0x201475f0                etext=.
                0x201475f0                _etext=.

.data           0x201475f0    0x2c670
                0x201475f0                wrs_kernel_data_start=.
                0x201475f0                _wrs_kernel_data_start=.
 *(.data)
 .data          0x201475f0    0x19e48 partialImage.o
                0x2014809c                g_UpgradeFlage
                0x2015fc74                _func_trap
                0x2014e088                telnetTaskOptions
                0x20151c44                intCnt
                0x20160fe0                fpCtlRegName
                0x2015d728                qPriListFromTailClassId
                0x20147910                mClBlkConfig
                0x20148a28                mmuModifyCr
                0x2014ea24                pTcpRandHook
                0x2014dff0                pTcpstates
                0x20151dd4                memPartSemInitRtn
                0x20149471                ___x_diab_sfpfnorm_o
                0x20151ba4                cacheLib
                0x2015da80                yyv
                0x2015d7ec                __loctime
                0x20151b74                fppTaskRegsDFmt
                0x2014c374                rtNewAddrMsgHook
                0x2014c440                _pUdpPcbHead
                0x20149608                ___x_gnu__muldi3_o
                0x20151480                __costate
                0x201495f4                ___x_gnu__dp_make_df_o
                0x20148108                g_dwSendUrgentPkg
                0x2015000c                dosDirHdlrsList
                0x20148914                sysIntLvlEnableRtn
                0x20151744                cacheMmuAvailable
                0x20149ab4                mCastHashTblSize
                0x201494d4                ___x_diab_sxpadd64_o
                0x2014b208                mutexOptionsNetDrv
                0x20148098                TASKID_ALARMEVENT
                0x20152010                mutexOptionsSelectLib
                0x20149b28                ip_defttl
                0x2015da84                lexNclasses
                0x201495f9                ___x_gnu__dvmd_tls_o
                0x2014ea90                tcpTraceRtn
                0x201520cc                symGroupDefault
                0x2014ec10                cbioMutexSemOptions
                0x20149dbc                udp_ttl
                0x20148a20                _mmuCrValue
                0x20149693                ___x_gnu__udiv_w_sdiv_o
                0x20149dc8                udp_pcbhashsize
                0x201496fc                llinfo_arp
                0x20151030                __ctype
                0x2014e45c                tftpTaskPriority
                0x20149609                ___x_gnu__negdi2_o
                0x20149724                arpt_keep
                0x2014efac                dcacheUpdTaskOptions
                0x20151138                __locale
                0x201494d2                ___x_diab_sxprem64_o
                0x201495ea                ___x_gnu__ashrdi3_o
                0x201519dc                fieldSzIncludeSign
                0x2014e460                tftpTaskOptions
                0x20149606                ___x_gnu__moddi3_o
                0x201494d3                ___x_diab_sxpasr64_o
                0x20149474                ___x_diab_wr_pk_db_o
                0x201494e0                __rtc_alloc_ptr
                0x20151c68                logTaskOptions
                0x20149695                ___x_gnu__udivmoddi4_o
                0x20149ed8                _panicHook
                0x201495f6                ___x_gnu__dp_sf_to_usi_o
                0x20151dcc                memPartBlockErrorRtn
                0x2014fbc0                fat16Debug
                0x201478a8                mtdTable
                0x20149477                ___x_diab_wr_sw_db_o
                0x20147c80                linkDataSyms
                0x20149605                ___x_gnu__make_sf_o
                0x20149dc0                udp_sendspace
                0x20147980                clDescTblNumEnt
                0x2014972c                arpRxmitTicks
                0x20153130                spyTaskOptions
                0x2015196c                excTaskOptions
                0x2014e08c                telnetTaskStackSize
                0x201486b8                __malloc_alloc_template<0>::__malloc_alloc_oom_handler
                0x20153b98                spTaskOptions
                0x20149404                __arm_call_via_o
                0x20150b30                dosVDirDebug
                0x2014e9bc                _landAttackSafe
                0x20149ed4                mutexOptionsUnixLib
                0x20160880                __cplusLoad_o
                0x2014969a                ___x_gnu_frame_o
                0x20151b70                fppTaskRegsCFmt
                0x20149a4e                ether_ipmulticast_min
                0x20149698                ___x_gnu__umodsi3_o
                0x2014c39c                _igmpLeaveGrpHook
                0x2014dff4                tcpstates
                0x20148670                __default_alloc_template<true, 0>::_S_start_free
                0x20160268                restartTaskStackSize
                0x201486bc                ___x_gnu__eh_o
                0x2015003c                dosFsDrvNum
                0x201480f0                g_iDebugSwitch
                0x201495fc                ___x_gnu__fixunstfdi_o
                0x2014808c                g_CommVer2
                0x201495fe                ___x_gnu__fixunsxfsi_o
                0x201480ac                CAlarmTcpSocket::m_pAlarmTcpSocket
                0x20147cf4                ftpdDebug
                0x20149697                ___x_gnu__umoddi3_o
                0x20152249                tyDeleteLineChar
                0x2014e854                inetdomain
                0x2014c444                _pTcpPcbHead
                0x20149b3c                ip_nhops
                0x20151de8                smMemPartAllocRtn
                0x20151dc4                memSysPartId
                0x2014e7e4                _pNetBufCollect
                0x2014960b                ___x_gnu__sf_to_usi_o
                0x20153ba0                ldCommonMatchAll
                0x2014946b                ___x_diab_sfpdcmpe_o
                0x2014946f                ___x_diab_sfpfcmp_o
                0x201486e8                cacheArchState
                0x20147780                CRC_Poly
                0x201486ec                cacheArchIntMask
                0x20147a1c                _wdbTgtHasDsp
                0x20148a24                mmuCrGet
                0x20149694                ___x_gnu__udivdi3_o
                0x2014a1d8                bsdSock43ApiFlag
                0x20151c60                logTaskId
                0x2014e984                rip_recvspace
                0x201486cc                ___x_gnu_exception_o
                0x2014e9e4                tcp_outflags
                0x20147a18                _wdbTgtHasFpp
                0x2014a2c0                ftplPasvModeDisable
                0x201485bc                runtimeVersion
                0x20148668                ___x_gnu_stlinst_o
                0x20153138                spyTaskStackSize
                0x201495ff                ___x_gnu__fixxfdi_o
                0x2014769c                sysCpu
                0x201476a4                sysExcMsg
                0x2014b060                muxMaxBinds
                0x2015ff5c                semTakeTbl
                0x2014e89c                icmpmaskrepl
                0x20151c50                iosFdNewHookRtn
                0x2014c38c                _protoSwIndex
                0x20147cfc                ftpdTaskOptions
                0x20148148                g_dwColor
                0x20151970                excTaskStackSize
                0x20160fd8                fpRegName
                0x20149476                ___x_diab_wr_pk_ld_o
                0x2014b064                muxBibLock
                0x201479d4                sysClDescTblNumEnt
                0x20148090                TASKID_CFGOPER
                0x201495fd                ___x_gnu__fixunsxfdi_o
                0x201495ec                ___x_gnu__bb_init_func_o
                0x20160248                taskClassId
                0x20148094                TASKID_UPGRADE
                0x2014c394                _mCastRouteFwdHook
                0x2015f734                flMinClusterSize
                0x20149469                ___x_diab_rd_sw_ld_o
                0x201495f7                ___x_gnu__dp_thenan_df_o
                0x20148678                __default_alloc_template<true, 0>::_S_free_list
                0x201476a0                sysBootLine
                0x201494f1                ___x_diab_libg_o
                0x2015da7c                yys
                0x20148100                g_dwRecvUrgentPkg
                0x2015294c                _func_dbgTargetNotify
                0x20148a3c                _func_vxMemProbeHook
                0x2016025c                namelessPrefix
                0x20148a44                _fpStatus
                0x20149466                ___x_diab_rd_pk_ld_o
                0x201478b8                noOfTLs
                0x20149720                arpt_prune
                0x20149e74                sowakeupHook
                0x20149728                arpt_down
                0x20160888                __cplusUsr_o
                0x2014810c                g_dwCommTestPri
                0x201495e8                ___x_gnu___gcc_bcmp_o
                0x201494d1                ___x_diab_sxpdiv64_o
                0x201485dc                cplusDemanglerMode
                0x20149b34                ipStrongEnded
                0x2014dda4                _pingTxTmo
                0x20149610                __shtab
                0x20152f7c                shellTaskOptions
                0x2014c36c                rtIfaceMsgHook
                0x20150040                dosFsDebug
                0x20160884                __cplusLoadObjFiles
                0x20148078                semSpiLock
                0x20147d10                ftpsMaxClients
                0x2016088c                _archHelp_msg
                0x201485cc                __cplusXtors_o
                0x2015224a                tyEofChar
                0x20149710                arpMaxEntries
                0x20149690                ___x_gnu__thenan_sf_o
                0x2014ea7c                tcp_keepinit
                0x20149718                useloopback
                0x2014891c                intDemuxErrorCount
                0x20148104                g_dwSendNormalPkg
                0x20149601                ___x_gnu__floatdixf_o
                0x2014866c                __default_alloc_template<true, 0>::_S_end_free
                0x20148120                CTimerIDPool::m_pclaInstance
                0x2016055c                wdInstClassId
                0x2014c3a4                _mCastRouteCmdHook
                0x20149468                ___x_diab_rd_sw_fl_o
                0x2015ffbc                semFlushDeferTbl
                0x20147920                clDescTbl
                0x2014e88c                icmpmask
                0x20149467                ___x_diab_rd_sw_db_o
                0x20149691                ___x_gnu__trampoline_o
                0x201480a0                g_dwSockPrint
                0x2014e9c0                tcprexmtthresh
                0x201520d0                syncSymAddRtn
                0x20149600                ___x_gnu__floatditf_o
                0x2014ae08                _presolvHostLibGetByName
                0x2014c37c                netTaskPriority
                0x20147dd8                BSP_UP
                0x20147cbc                ack1
                0x2016026c                restartTaskOptions
                0x2014e9c4                tcp_last_inpcb
                0x2015d668                qFifoClassId
                0x201485c4                creationDate
                0x20149604                ___x_gnu__lshrdi3_o
                0x201486c0                __terminate_func
                0x2015224c                mutexOptionsTyLib
                0x201520d4                syncSymRemoveRtn
                0x201478d4                consoleFd
                0x201486d5                ___x_gnu_tinfo_o
                0x20151c6c                logTaskStackSize
                0x2014ae04                hostInitFlag
                0x20147994                sysClDescTbl
                0x20152f80                shellTaskStackSize
                0x201485e4                current_demangling_style
                0x2014c384                netTaskStackSize
                0x20151c3c                hashClassId
                0x2015d294                ramDiskDebug
                0x20149478                ___x_diab_wr_sw_fl_o
                0x20152f84                shellHistSize
                0x20149473                ___x_diab_sfpround_o
                0x20152274                mutexOptionsVmBaseLib
                0x2014809d                g_byBuzzer
                0x201494ec                __rta_longjmp
                0x2015c76c                dosFsCacheSizeDefault
                0x201485d8                __cplusDem_o
                0x2014a1dc                bsdSockFunc
                0x20151740                cacheDataEnabled
                0x2014a2cc                _func_ftpTransientFatal
                0x201496e8                arpintrq
                0x2014e458                tftpReXmit
                0x20152cf8                moduleClassId
                0x2015d724                qPriListClassId
                0x20147a04                udpCfgParams
                0x201494d5                ___x_diab_sxpcmp64_o
                0x201495ee                ___x_gnu__cmpdi2_o
                0x2015f964                noOfDrives
                0x20147cf8                ftpdTaskPriority
                0x2014e810                _pNetPoolFuncTbl
                0x20158474                statTblSize
                0x2014ea40                tcp_keepintvl
                0x2014b204                _func_fileDoesNotExist
                0x20147694                sysPhysMemDescNumEnt
                0x2015ff3c                semGiveTbl
                0x20149e78                sb_max
                0x20151d48                mutexOptionsMemLib
                0x2014e980                rip_sendspace
                0x20151c54                iosFdFreeHookRtn
                0x20148908                sysIntLvlVecChkRtn
                0x2014b068                muxTkDebug
                0x20160558                wdClassId
                0x201480e4                CAppInterface::m_spInstance
                0x2014dda0                _pingTxInterval
                0x2014e44c                tftpVerbose
                0x20148140                CVideoPreview::m_spInstance
                0x2014ea20                tcp_pcbhashsize
                0x201494dc                ___x_diab_rtahooks_o
                0x2015fcbc                msgQInstClassId
                0x20161191                ffsMsbTbl
                0x201495f5                ___x_gnu__dp_pack_df_o
                0x201495e9                ___x_gnu__ashldi3_o
                0x20151ddc                memDefaultAlignment
                0x20151dc8                memPartClassId
                0x20149475                ___x_diab_wr_pk_fl_o
                0x20149b10                inetctlerrmap
                0x201480ec                CProtocolInterface::m_spInstance
                0x2014eed8                dcacheUpdTaskStack
                0x20151734                cacheDmaMallocRtn
                0x201485b8                runtimeName
                0x20160250                taskPriRangeCheck
                0x20160264                restartTaskPriority
                0x2014ea18                tcp_rttdflt
                0x2015ff34                semClassId
                0x2016024c                taskInstClassId
                0x2015f72c                flMsecCounter
                0x20149472                ___x_diab_sfpfsetup_o
                0x20149b2c                proxyBroadcastHook
                0x20153b9c                spTaskStackSize
                0x2014c388                netLibInitialized
                0x201480a4                CCfgTcpSocket::m_pCfgTcpSocket
                0x20151c64                logTaskPriority
                0x20152280                mmuPhysAddrShift
                0x201480b4                g_dwPrintTrace
                0x20148088                g_CommVer1
                0x2014ea94                tcpReportRtn
                0x20147a10                wdbNumMemRegions
                0x2014947d                ___x_diab_arm_div_o
                0x201480e8                CMailBoxMap::m_spInstance
                0x20151968                excTaskPriority
                0x201495f8                ___x_gnu__dp_unpack_df_o
                0x20149e08                _pNetDpool
                0x2014a2c4                ftplTransientMaxRetryCount
                0x20149e0c                _pNetSysPool
                0x201485d4                linkedCtorsInitialized
                0x201520d8                mutexOptionsSymLib
                0x20151dd0                memPartAllocErrorRtn
                0x20147900                ipCfgParams
                0x2014e454                tftpTimeout
                0x20148910                sysIntLvlChgRtn
                0x20147984                sysMclBlkConfig
                0x20149dc4                udp_recvspace
                0x20161104                trcDefaultArgs
                0x20148124                CTimerManager::m_pclaInstance
                0x20149607                ___x_gnu__modsi3_o
                0x2015173c                cacheDataMode
                0x2014fbc4                fatClugFac
                0x20153134                spyTaskPriority
                0x2014c370                rtMissMsgHook
                0x2014dfb8                remStdErrSetupTimeout
                0x2014c398                _igmpJoinGrpHook
                0x201494d6                ___x_diab_sxpm6432_o
                0x2015d6a8                qPriBMapClassId
                0x201485d0                cplusXtorStrategy
                0x2014ea80                tcp_maxpersistidle
                0x20152270                currentContext
                0x20149603                ___x_gnu__interwork_call_via_rX_o
                0x20151dec                memPartInstClassId
                0x2014807c                TASKID_BDCFG
                0x2014c448                _pTcpPcbPrint
                0x20151bd8                cacheNullFuncs
                0x20151c10                evtAction
                0x2015db09                lexStateTable
                0x201494e8                __rtc_blkinfo_ptr
                0x20160ff8                _sigfaulttable
                0x201480dc                C485Client::m_spInstance
                0x201495f3                ___x_gnu__dp_fpcmp_parts_df_o
                0x20149464                ___x_diab_rd_pk_db_o
                0x2014eed0                dcacheUpdTaskId
                0x201520c8                symTblClassId
                0x2014890c                sysIntLvlVecAckRtn
                0x20148a30                _func_armPageSource
                0x20149696                ___x_gnu__udivsi3_o
                0x20149699                ___x_gnu__unpack_sf_o
                0x20148674                __default_alloc_template<true, 0>::_S_heap_size
                0x2014ea14                tcp_mssdflt
                0x20151de0                smMemPartAddToPoolRtn
                0x2014947a                ___x_diab_sxpmul64_o
                0x201485f0                libiberty_demanglers
                0x201480bc                CSoftUpGrade::m_slRspWriteFlashResult
                0x2014ea78                tcp_keepcnt
                0x20151c0c                _procNumWasSet
                0x2014f844                dosDirOldDebug
                0x20149714                arpinit_done
                0x20152248                tyBackspaceChar
                0x20149b30                ipfragttl
                0x20147878                endDevTbl
                0x201495fb                ___x_gnu__fixtfdi_o
                0x20160860                semEvIsFreeTbl
                0x20147d0c                ftpdWindowSize
                0x2015fcb8                msgQClassId
                0x20147d04                ftpdWorkTaskOptions
                0x20149465                ___x_diab_rd_pk_fl_o
                0x20149da4                udpDoCkSumRcv
                0x201478fc                icmpCfgParams
                0x20149da8                udp_in
                0x201494d7                ___x_diab_torn_syncatomic_o
                0x20149da0                udpcksum
                0x2014ea98                tcp_sendspace
                0x20152110                symLkupPgSz
                0x201494d9                ___x_diab_torn_syncsem_o
                0x20151738                cacheDmaFreeRtn
                0x2015fc78                _func_wdbIsNowExternal
                0x201486d6                ___x_gnu_tinfo2_o
                0x20147a24                wdbIsInitialized
                0x2014e450                tftpTrace
                0x20148144                g_dwResolution
                0x20151bf8                cacheUserFuncs
                0x201495f2                ___x_gnu__dp_df_to_usi_o
                0x201478b0                tlTable
                0x20148110                g_pclaDataPackage
                0x201495f0                ___x_gnu__divdi3_o
                0x20148074                inflateCksum
                0x20149602                ___x_gnu__fpcmp_parts_sf_o
                0x201480b8                CSoftUpGrade::m_pUpgrade
                0x201495ef                ___x_gnu__df_to_usi_o
                0x201495eb                ___x_gnu__bb_o
                0x20155a94                statTbl
                0x2014946a                ___x_diab_sfpdcmp_o
                0x2014ec0c                cbioClassId
                0x20147cbd                ack2
                0x20160260                restartTaskName
                0x20151be8                cacheDmaFuncs
                0x20149692                ___x_gnu__ucmpdi2_o
                0x20151c74                logFdFromRlogin
                0x2014dfe4                pSockFdMap
                0x2014ae0c                _presolvHostLibGetByAddr
                0x201479dc                tcpCfgParams
                0x20149a48                etherbroadcastaddr
                0x2014c3a0                _ipFilterHook
                0x2015fc48                wdbGopherLock
                0x2014946e                ___x_diab_sfpdsetup_o
                0x20149db8                udp_last_inpcb
                0x20161291                ffsLsbTbl
                0x20147d00                ftpdWorkTaskPriority
                0x20151de4                smMemPartFreeRtn
                0x201479d8                ipMaxUnits
                0x2015ff9c                semGiveDeferTbl
                0x201495ed                ___x_gnu__clear_cache_o
                0x2014ea1c                tcp_do_rfc1323
                0x2014960c                ___x_gnu__shtab_o
                0x201480f4                CModuleManager::m_spInstance
                0x20149b38                ipqmaxlen
                0x201475f4                sysPhysMemDesc
                0x2014947e                ___x_diab_ff1_o
                0x20148508                tIdSPC
                0x2015ff7c                semFlushTbl
                0x2014ffd4                dosFsChkRtn
                0x2014ea84                tcp_totbackoff
                0x20149479                ___x_diab_wr_sw_ld_o
                0x2014dfb4                remLastResvPort
                0x201478d8                __includeGnuIntrinsics
                0x20151c70                mutexOptionsLogLib
                0x201494f0                ___x_diab_comljmp_o
                0x20148114                g_psMessage
                0x2014ffd8                dosFsVolFormatRtn
                0x20151c5c                iosLibInitialized
                0x20147cb8                semI2cLock
                0x2014960a                ___x_gnu__pack_sf_o
                0x20152c68                loadRoutine
                0x2014ea3c                tcp_keepidle
                0x2015fc88                activeQHead
                0x2015fc18                wdbOneShot
                0x2014dd9c                _pingTxLen
                0x201495f1                ___x_gnu__divsi3_o
                0x2014c390                _icmpErrorHook
                0x2014947c                ___x_diab_sxplsr64_o
                0x2014f284                dosChkMinDate
                0x201486d4                ___x_gnu_new_o
                0x20151438                _Randseed
                0x20148a4c                fpArmModules
                0x201478e0                __includeDiabIntrinsics
                0x20160288                taskRegsFmt
                0x20152f74                shellTaskName
                0x20148080                g_dwBdInterPrint
                0x201480e0                CEthnClient::m_spInstance
                0x20148a2c                sysMmuLibInit
                0x201494d0                ___x_diab_sxprem32_o
                0x201495fa                ___x_gnu__eprintf_o
                0x2014ae10                mutexOptionsHostLib
                0x201486f8                _func_excBreakpoint
                0x2014946c                ___x_diab_sfpdnorm_o
                0x20147698                sysBus
                0x20151c58                mutexOptionsIosLib
                0x201480a8                CSoftTcpSocket::m_pSoftTcpSocket
                0x201480c4                g_dwAlarmReport
                0x20151c48                ioMaxLinkLevels
                0x2015312c                spyTaskId
                0x2014ae00                hostListSem
                0x20151c14                vmLibInfo
                0x20151280                fpClassId
                0x20151c38                ftplDebug
                0x201480fc                g_dwRecvNormalPkg
                0x2015f9bc                wdbEndDebug
                0x20152f78                shellTaskPriority
                0x20149cf8                rtmodified
                0x20151859                copyright_wind_river
                0x20161394                qJobClassId
                0x2014c378                netTaskSemId
                0x201494d8                ___x_diab_torn_syncmutex_o
                0x201485c0                vxWorksVersion
                0x2014971c                arp_maxtries
                0x201486e4                cacheArchAlignSize
                0x20160254                pTaskLastFpTcb
                0x201486f0                sysCacheLibInit
                0x2014946d                ___x_diab_sfpdpol_o
                0x20149b40                input_ipaddr
                0x20151fec                pipeMsgQOptions
                0x2014c380                netTaskOptions
                0x20152c6c                syncLoadRtn
                0x2016102c                taskRegName
                0x2014ea44                tcp_backoff
                0x20151c08                _dbgDsmInstRtn
                0x20149a54                ether_ipmulticast_max
                0x201478ac                noOfMTDs
                0x2014e090                telnetTaskPriority
                0x2014947b                ___x_diab_sxplsl64_o
                0x2015fc98                _func_armIntStackSplit
                0x20147a14                pWdbMemRegions
                0x2015ff38                semInstClassId
                0x201485e0                cplusDemangleFunc
                0x201494e4                __rtc_free_ptr
                0x2014ea9c                tcp_recvspace
                0x2014e464                tftpTaskStackSize
                0x20151748                classClassId
                0x20149ab0                subnetsarelocal
                0x20153b94                spTaskPriority
                0x20151dd8                memPartOptionsDefault
                0x20147a38                linkSyms
                0x2015da88                lexClass
                0x201480b0                CDebugTcpSocket::m_pDebugTcpSocket
                0x20148918                sysIntLvlDisableRtn
                0x2014ffdc                dosFatHdlrsList
                0x20152948                _func_dbgHostNotify
                0x2015116c                __clocale
                0x20147d08                ftpdWorkTaskStackSize
                0x20149730                proxyArpHook
                0x20160258                pTaskLastDspTcb
                0x2014a240                etherMultiDebug
                0x20149470                ___x_diab_sfpfcmpe_o
                0x2014eed4                dcacheUpdTaskPriority
                0x201480c8                CProcAlarm::m_pInstance
                0x2014a2c8                ftplTransientRetryInterval
                0x2014e094                telnetdCurrentClients
                0x20147a20                _wdbTgtHasAltivec
                0x2014f280                dosChkDebug
 .data          0x20161438       0x38 ctdt.o
                0x20161454                _dtors
                0x20161438                _ctors
 .data          0x20161470    0x127e4 symTbl.o
                0x20173c50                standTblSize
                0x20161470                standTbl
 *(.data.*)
 *(.gnu.linkonce.d*)
 *(.data1)
 *(.eh_frame)
 *(.gcc_except_table)
 *crtbegin.o(.ctors)
 EXCLUDE_FILE ( *crtend.o)*(.ctors)
 *(SORT(.ctors.*))
 *(.ctors)
 *crtbegin.o(.dtors)
 EXCLUDE_FILE ( *crtend.o)*(.dtors)
 *(SORT(.dtors.*))
 *(.dtors)
                0x2017bc50                _gp=(ALIGN(0x10)+0x7ff0)
 *(.got.plt)
 *(.got)
 *(.dynamic)
 *(.got2)
 *(.sdata)
 *(.sdata.*)
 *(.lit8)
 *(.lit4)
 *fill*         0x20173c54        0xc
                0x20173c60                .=ALIGN(0x10)
                0x20173c60                .=ALIGN(0x10)
                0x20173c60                edata=.
                0x20173c60                _edata=.
                0x20173c60                wrs_kernel_data_end=.
                0x20173c60                _wrs_kernel_data_end=.

.bss            0x20173c60   0xdb1d50
                0x20173c60                wrs_kernel_bss_start=.
                0x20173c60                _wrs_kernel_bss_start=.
 *(.sbss)
 *(.scommon)
 *(.dynbss)
 *(.bss)
 .bss           0x20173c60    0x7eb74 partialImage.o
                0x201ef760                signed char type_info node
                0x201ef76c                __sfpRoundMode
                0x201ef710                char type_info node
                0x201ef730                float type_info node
                0x201ef740                unsigned long type_info node
                0x201ef748                unsigned long long type_info node
                0x201ef708                bool type_info node
                0x201ef6dc                __new_handler
                0x201ef700                short type_info node
                0x201ef6ac                __default_alloc_template<true, 0>::_S_node_allocator_lock
                0x201ef728                double type_info node
                0x201ef6b0                cplusNewHdlMutex
                0x201ef6f8                int type_info node
                0x201ef738                unsigned int type_info node
                0x201ebda8                g_semFileOper
                0x201ef758                unsigned char type_info node
                0x201ef750                unsigned short type_info node
                0x201ef6f0                long type_info node
                0x201ebdc4                stBdVolTh
                0x201ef718                wchar_t type_info node
                0x201ef6b4                __cplusCore_o
                0x201ebdac                stBdTmpTh
                0x201ef6e8                long long type_info node
                0x201ef6e0                void type_info node
                0x201ef720                long double type_info node
 *(COMMON)
 *fill*         0x201f27d4        0xc
 COMMON         0x201f27e0   0xd331cc partialImage.o
                                  0x0 (size before relaxing)
                0x201f27e0                _func_smObjObjShow
                0x201f27e4                taskSwitchTable
                0x201f2828                inetsw
                0x201f2b80                wdbTaskDspRegsSet
                0x201f2b84                msgQDistShowRtn
                0x201f2b88                _func_evtLogT1_noTS
                0x201f2ba0                sysCplusEnable
                0x201f2bc0                __func_type_info type_info node
                0x201f2be0                CDataPackage type_info node
                0x201f2bec                _func_armIrqHandler
                0x201f2bf0                mCastHashInfo
                0x201f2bf8                ifnet
                0x201f2bfc                _func_spyStop
                0x201f2c00                workQWriteIx
                0x201f2c20                bad_alloc type_info node
                0x201f2c30                i2c_ack_stat
                0x201f2c34                _func_excInfoShow
                0x201f2c38                ip_id
                0x201f2c3c                _func_evtLogReserveTaskName
                0x201f2c40                dbgLockUnbreakable
                0x201f2c44                drvTable
                0x201f2c50                ip_protox
                0x201f2d50                DCACHE_CTRL
                0x201f2dd0                zeroin_addr
                0x201f2de0                __attr_type_info type_info node
                0x201f2dec                _func_trgCheck
                0x201f2e00                wdbTaskAvRegsGet
                0x201f2e04                pWvNetEventMap
                0x201f2e08                workQReadIx
                0x201f2e0c                fppDisplayHookRtn
                0x201f2e10                cbioClass
                0x201f2e50                ioDefPath
                0x201f2f60                wdbTaskRestartHook
                0x201f2f64                _func_taskCreateHookAdd
                0x201f2f68                _func_dspRegsListHook
                0x201f2f6c                _func_tmrConnect
                0x201f2f70                max_protohdr
                0x201f2f74                _func_evtLogTSched
                0x201f2f78                tcpstat
                0x201f3048                vxIntStackBase
                0x201f304c                _func_dspTaskRegsShow
                0x201f3050                workQIsEmpty
                0x201f3054                arp_allocated
                0x201f3058                trgEvtClass
                0x201f305c                _func_selPtyDelete
                0x201f3060                mmuLibFuncs
                0x201f3088                redirOutFd
                0x201f308c                taskSwapTable
                0x201f30d0                _func_evtLogO
                0x201f30d4                pEndPktDev
                0x201f30e0                CSoftUpGrade type_info node
                0x201f30e8                _func_selWakeupListInit
                0x201f3100                CRelativeTimer type_info node
                0x201f310c                rttrash
                0x201f3110                _wdbTaskCont
                0x201f3120                CTimer type_info node
                0x201f3128                semMGiveKernWork
                0x201f3140                ftpsCurrentClients
                0x201f3160                CfgMgr type_info node
                0x201f3168                trgCnt
                0x201f316c                errno
                0x201f3180                CProcAlarm type_info node
                0x201f3188                mmuStateTransArraySize
                0x201f318c                _func_ioTaskStdSet
                0x201f3190                _func_excIntHook
                0x201f3194                _func_selPtyAdd
                0x201f3198                kernelState
                0x201f319c                _func_evtLogM1
                0x201f31a0                sysAdaEnable
                0x201f31c0                wdbBpSysEnterHook
                0x201f31e0                wdbRtIf
                0x201f3238                yyerrflag
                0x201f3240                s_asOvlyInfo
                0x201f33b0                _func_sigExcKill
                0x201f33b4                _func_wvNetPortFilterTest
                0x201f33c0                CKeepAlivePackage type_info node
                0x201f33d0                s_abyImageFileData
                0x2088afe0                bad_typeid type_info node
                0x2088afec                _func_bdall
                0x2088aff0                hostList
                0x2088affc                tickQHead
                0x2088b00c                __wdbEvtptDeleteAll
                0x2088b010                _func_symNameGet
                0x2088b014                tcbinfo
                0x2088b024                _func_logMsg
                0x2088b028                tcpOutRsts
                0x2088b02c                _func_tmrFreq
                0x2088b030                excMsgQId
                0x2088b034                _clockRealtime
                0x2088b060                __sn_t24__default_alloc_template2b1i0$_S_node_allocator_lock
                0x2088b064                _func_tmrEnable
                0x2088b080                CStandbySystemMessage type_info node
                0x2088b0a0                CAlarmTcpSocket type_info node
                0x2088b0ac                _igmpQuerierTimeUpdateHook
                0x2088b0c0                CProtocolInterface type_info node
                0x2088b0c8                bpFreeList
                0x2088b0d0                msgQDistNumMsgsRtn
                0x2088b0e0                sysFlags
                0x2088b0e4                _func_excPanicHook
                0x2088b0e8                _func_spy
                0x2088b100                bad_cast type_info node
                0x2088b10c                _func_remCurIdGet
                0x2088b110                _func_ipsecFilterHook
                0x2088b114                _igmpLeaveAlertHook
                0x2088b118                vxSvcIntStackEnd
                0x2088b11c                spyKernelIncTicks
                0x2088b120                smObjTcbFreeFailRtn
                0x2088b140                CLinkNode type_info node
                0x2088b160                CPackage type_info node
                0x2088b168                taskBpHook
                0x2088b16c                sigEvtRtn
                0x2088b170                _func_ipsecOutput
                0x2088b174                _m2IfTableUpdate
                0x2088b178                _func_selTyDelete
                0x2088b17c                _wdbTaskStep
                0x2088b180                _func_pthread_setcanceltype
                0x2088b184                _func_evtLogT0
                0x2088b188                in_ifaddr
                0x2088b18c                max_hdr
                0x2088b190                smMemPartShowRtn
                0x2088b194                _func_sseTaskRegsShow
                0x2088b198                dbgPrintFpp
                0x2088b19c                _func_tmrStampLock
                0x2088b1a0                taskDeleteTable
                0x2088b1e4                rt_tables
                0x2088b250                ipstat
                0x2088b2c0                CModule type_info node
                0x2088b2c8                _func_valloc
                0x2088b2cc                ledId
                0x2088b2d0                _igmpMessageHook
                0x2088b2d8                s_abyBackgroundBuf
                0x20f22ad8                dbgUnbreakableOld
                0x20f22adc                max_linkhdr
                0x20f22ae0                _func_evtLogM3
                0x20f22ae4                loif
                0x20f22b78                _wdbTaskBpTrap
                0x20f22b80                sCurI2cPort
                0x20f22b84                fppCreateHookRtn
                0x20f22ba0                CSoftTcpSocket type_info node
                0x20f22bac                _func_evtLogPoint
                0x20f22bb0                msgQSmShowRtn
                0x20f22bb4                vxSvcIntStackBase
                0x20f22bb8                _func_symValueGet
                0x20f22bbc                spyIncTicks
                0x20f22bc0                _func_spyClkStart
                0x20f22bc4                _func_excBaseHook
                0x20f22bc8                _func_tmrPeriod
                0x20f22bcc                dbgSafeUnbreakable
                0x20f22be0                __ptmf_type_info type_info node
                0x20f22bec                yynerrs
                0x20f22bf0                pWdbRtIf
                0x20f22bf4                wdbTaskId
                0x20f22c00                __array_type_info type_info node
                0x20f22c0c                _func_tmrStamp
                0x20f22c10                spyIdleTicks
                0x20f22c14                msgQSmInfoGetRtn
                0x20f22c20                sysBootParams
                0x20f22ed4                _func_ftpLs
                0x20f22ed8                sysBootFile
                0x20f22f78                tcp_maxidle
                0x20f22f7c                mmuPageBlockSize
                0x20f22f80                wvInstIsOn
                0x20f22f84                yyval
                0x20f22f94                semClass
                0x20f22fc8                semInstClass
                0x20f22ffc                smObjTaskDeleteFailRtn
                0x20f23000                type_info type_info node
                0x20f23008                _func_evtLogM2
                0x20f2300c                pJobPool
                0x20f2340c                tcp_alpha
                0x20f23410                udpstat
                0x20f23438                mask_rnhead
                0x20f2343c                _func_evtLogT0_noInt
                0x20f23440                _func_spyReport
                0x20f23444                msgQDistInfoGetRtn
                0x20f23448                _func_selTyAdd
                0x20f2344c                _igmpJoinAlertHook
                0x20f23450                _func_fclose
                0x20f23460                sysSymTbl
                0x20f23480                wdbBpSysExitHook
                0x20f23484                yytmp
                0x20f23488                vxAbsTicks
                0x20f23490                in_interfaces
                0x20f23494                ppGlobalEnviron
                0x20f23498                msgQSmReceiveRtn
                0x20f2349c                smObjTcbFreeRtn
                0x20f234a0                _m2SetIfLastChange
                0x20f234c0                C485Client type_info node
                0x20f234cc                smMemPartOptionsSetRtn
                0x20f234d0                _func_spyClkStop
                0x20f234d4                redirInFd
                0x20f234e0                wildcard
                0x20f23500                CTcpSocket type_info node
                0x20f23520                CCfgTcpSocket type_info node
                0x20f23540                CRebootSystemMessage type_info node
                0x20f2354c                _wdbTaskBpAdd
                0x20f23550                dbgPrintSimd
                0x20f23554                yy_yys
                0x20f237ac                msgQDistSendRtn
                0x20f237b0                _func_tmrDisable
                0x20f237b4                shellTaskId
                0x20f237b8                rn_mkfreelist
                0x20f237c0                __pointer_type_info type_info node
                0x20f237e0                CSocketNode type_info node
                0x20f237e8                _func_evtLogString
                0x20f23800                COnLinePackage type_info node
                0x20f2380c                tcp_beta
                0x20f23810                splSemId
                0x20f23814                udb
                0x20f23820                CPeriodicTimer type_info node
                0x20f23840                CDebugTcpSocket type_info node
                0x20f2384c                arp_inuse
                0x20f23850                mmuStateTransArray
                0x20f23854                wvEvtClass
                0x20f23858                splTid
                0x20f2385c                taskIdCurrent
                0x20f23860                ipintrq
                0x20f23874                rootTaskId
                0x20f23878                _func_symFindSymbol
                0x20f23880                bad_exception type_info node
                0x20f2388c                _func_printErr
                0x20f23890                pFppTaskIdPrevious
                0x20f238a0                exception type_info node
                0x20f238a8                roundRobinSlice
                0x20f238ac                _func_ipsecInput
                0x20f238c0                COfflineSystemMessage type_info node
                0x20f238cc                _func_evtLogT1
                0x20f238d0                tcp_now
                0x20f238d4                localToGlobalOffset
                0x20f238d8                _func_taskDeleteHookAdd
                0x20f238dc                netTaskId
                0x20f238e0                __user_type_info type_info node
                0x20f23900                wdbTaskFpRegsSet
                0x20f23904                flPollSemId
                0x20f23908                _func_netLsByName
                0x20f2390c                vxTicks
                0x20f23910                dbgPrintDsp
                0x20f23914                yystate
                0x20f23918                _func_fppTaskRegsShow
                0x20f2391c                _func_symFindByValue
                0x20f23920                excExcepHook
                0x20f23924                yydebug
                0x20f23940                wdbTaskFpRegsGet
                0x20f23944                yyps
                0x20f23948                smObjPoolMinusOne
                0x20f23960                __ptmd_type_info type_info node
                0x20f23980                CSystemMessage type_info node
                0x20f23988                ipforward_rt
                0x20f2399c                _func_selWakeupListTerm
                0x20f239a0                msgQSmNumMsgsRtn
                0x20f239a4                eventEvtRtn
                0x20f239a8                smMemPartFindMaxRtn
                0x20f239ac                vxIrqIntStackBase
                0x20f239b0                vxIntStackEnd
                0x20f239b4                _func_memalign
                0x20f239c0                CProtocol type_info node
                0x20f239c8                yypv
                0x20f239e0                ipDrvCtrl
                0x20f23aa4                rootMemNBytes
                0x20f23aa8                _func_evtLogM0
                0x20f23aac                semSmShowRtn
                0x20f23ab0                _func_sigprocmask
                0x20f23ac0                cplusDemanglerStyle
                0x20f23ac4                _func_symTypeGet
                0x20f23ac8                _pSigQueueFreeHead
                0x20f23acc                igmpstat
                0x20f23af0                tcp_saveti
                0x20f23b18                tcpcb
                0x20f23b1c                arp_intimer
                0x20f23b20                _func_remCurIdSet
                0x20f23b40                loginVerifyRtn
                0x20f23b44                rtstat
                0x20f23b50                taskCreateTable
                0x20f23ba0                __si_type_info type_info node
                0x20f23bac                readyQHead
                0x20f23bbc                panicSuspend
                0x20f23bc0                wdbExternSystemRegs
                0x20f23c04                bpList
                0x20f23c0c                vxIrqIntStackEnd
                0x20f23c20                sysStartType
                0x20f23c24                __wdbEventListIsEmpty
                0x20f23c28                sysBootHost
                0x20f23cc8                pInPkt
                0x20f23ccc                _func_dspMregsHook
                0x20f23cd0                maxFiles
                0x20f23ce0                CRC
                0x20f23d64                _func_excJobAdd
                0x20f23d68                _ipCfgFlags
                0x20f23d6c                yylval
                0x20f23d7c                _func_spyTask
                0x20f23d80                CEthnClient type_info node
                0x20f23d8c                smMemPartReallocRtn
                0x20f23d90                tcp_iss
                0x20f23d94                pMibRtn
                0x20f23d98                spyInterruptTicks
                0x20f23d9c                _func_wvNetAddressFilterTest
                0x20f23da0                spyKernelTicks
                0x20f23da4                taskSwapReference
                0x20f23de8                msgQSmSendRtn
                0x20f23dec                _func_selWakeupAll
                0x20f23df0                maxDrivers
                0x20f23e00                CStartupSystemMessage type_info node
                0x20f23e0c                max_keylen
                0x20f23e10                yy_yyv
                0x20f24770                excTaskId
                0x20f24774                ipq
                0x20f24790                wvObjIsEnabled
                0x20f247a0                CCtrlPackage type_info node
                0x20f247ac                pRootMemStart
                0x20f247b0                spyInterruptIncTicks
                0x20f247b4                spyIdleIncTicks
                0x20f247c0                wdbCommMtu
                0x20f247c4                fdTable
                0x20f247e0                statSymTbl
                0x20f247e4                roundRobinOn
                0x20f24800                readyQBMap
                0x20f25024                domains
                0x20f25028                spyTotalTicks
                0x20f25040                __class_type_info type_info node
                0x20f25060                sysProcNum
                0x20f25064                _func_sigTimeoutRecalc
                0x20f25080                wdbTaskDspRegsGet
                0x20f25084                icmpstat
                0x20f2513c                kernelIsIdle
                0x20f25140                vxEventPendQ
                0x20f25150                iosDvList
                0x20f25158                dcacheCtrl
                0x20f25960                __builtin_type_info type_info node
                0x20f2596c                _func_symFindByValueAndType
                0x20f25970                semSmInfoRtn
                0x20f25974                yychar
                0x20f25978                udbinfo
                0x20f25988                msgQDistReceiveRtn
                0x20f259a0                wdbTaskAvRegsSet
                0x20f259a4                _func_evtLogOIntLock
                0x20f259a8                _func_taskRegsShowRtn
 *fill*         0x20f259ac        0x4
                0x20f259b0                .=ALIGN(0x10)
                0x20f259b0                .=ALIGN(0x10)
                0x20f259b0                end=.
                0x20f259b0                _end=.
                0x20f259b0                wrs_kernel_bss_end=.
                0x20f259b0                _wrs_kernel_bss_end=.

/DISCARD/
 *(.note)
 *(.comment)
 *(.pdr)

.stab
 *(.stab)

.stabstr
 *(.stabstr)

.stab.excl
 *(.stab.excl)

.stab.exclstr
 *(.stab.exclstr)

.stab.index
 *(.stab.index)

.stab.indexstr
 *(.stab.indexstr)

.comment
 *(.comment)

.debug
 *(.debug)

.line
 *(.line)

.debug_srcinfo
 *(.debug_srcinfo)

.debug_sfnames
 *(.debug_sfnames)

.debug_aranges  0x00000000      0xae0
 *(.debug_aranges)
 .debug_aranges
                0x00000000      0xae0 partialImage.o

.debug_pubnames
                0x00000000     0xb286
 *(.debug_pubnames)
 .debug_pubnames
                0x00000000     0xb22e partialImage.o
 .debug_pubnames
                0x0000b22e       0x28 ctdt.o
 .debug_pubnames
                0x0000b256       0x30 symTbl.o

.debug_info     0x00000000   0x40d3e9
 *(.debug_info)
 .debug_info    0x00000000     0x4678 dataSegPad.o
 .debug_info    0x00004678   0x402b04 partialImage.o
 .debug_info    0x0040717c       0xd0 ctdt.o
 .debug_info    0x0040724c     0x619d symTbl.o

.debug_abbrev   0x00000000    0x1058f
 *(.debug_abbrev)
 .debug_abbrev  0x00000000      0x109 dataSegPad.o
 .debug_abbrev  0x00000109    0x10331 partialImage.o
 .debug_abbrev  0x0001043a       0x4a ctdt.o
 .debug_abbrev  0x00010484      0x10b symTbl.o

.debug_line     0x00000000    0x5dfa8
 *(.debug_line)
 .debug_line    0x00000000      0x190 dataSegPad.o
 .debug_line    0x00000190    0x5dcbc partialImage.o
 .debug_line    0x0005de4c       0x2e ctdt.o
 .debug_line    0x0005de7a      0x12e symTbl.o

.debug_frame    0x00000000     0x13dc
 *(.debug_frame)
 .debug_frame   0x00000000     0x13dc partialImage.o

.debug_str
 *(.debug_str)

.debug_loc
 *(.debug_loc)

.debug_macinfo
 *(.debug_macinfo)

.debug_weaknames
 *(.debug_weaknames)

.debug_funcnames
 *(.debug_funcnames)

.debug_typenames
 *(.debug_typenames)

.debug_varnames
 *(.debug_varnames)
OUTPUT(vxWorks elf32-littlearm)
